Archive member included to satisfy reference by file (symbol)

/opt/miyoo/lib/gcc/arm-miyoo-linux-uclibcgnueabi/7.3.0/libgcov.a(_gcov_merge_add.o)
                              platform/linux/emu.o (__gcov_merge_add)
/opt/miyoo/lib/gcc/arm-miyoo-linux-uclibcgnueabi/7.3.0/libgcov.a(_gcov_merge_single.o)
                              platform/libpicofe/plat_sdl.o (__gcov_merge_single)
/opt/miyoo/lib/gcc/arm-miyoo-linux-uclibcgnueabi/7.3.0/libgcov.a(_gcov_merge_ior.o)
                              platform/common/menu_pico.o (__gcov_merge_ior)
/opt/miyoo/lib/gcc/arm-miyoo-linux-uclibcgnueabi/7.3.0/libgcov.a(_gcov_merge_time_profile.o)
                              platform/linux/emu.o (__gcov_merge_time_profile)
/opt/miyoo/lib/gcc/arm-miyoo-linux-uclibcgnueabi/7.3.0/libgcov.a(_gcov_interval_profiler.o)
                              cpu/fame/famec.o (__gcov_interval_profiler)
/opt/miyoo/lib/gcc/arm-miyoo-linux-uclibcgnueabi/7.3.0/libgcov.a(_gcov_pow2_profiler.o)
                              cpu/fame/famec.o (__gcov_pow2_profiler)
/opt/miyoo/lib/gcc/arm-miyoo-linux-uclibcgnueabi/7.3.0/libgcov.a(_gcov_one_value_profiler.o)
                              platform/common/menu_pico.o (__gcov_one_value_profiler)
/opt/miyoo/lib/gcc/arm-miyoo-linux-uclibcgnueabi/7.3.0/libgcov.a(_gcov_average_profiler.o)
                              platform/common/menu_pico.o (__gcov_average_profiler)
/opt/miyoo/lib/gcc/arm-miyoo-linux-uclibcgnueabi/7.3.0/libgcov.a(_gcov_ior_profiler.o)
                              platform/common/menu_pico.o (__gcov_ior_profiler)
/opt/miyoo/lib/gcc/arm-miyoo-linux-uclibcgnueabi/7.3.0/libgcov.a(_gcov_indirect_call_profiler_v2.o)
                              platform/linux/emu.o (__gcov_indirect_call_profiler_v2)
/opt/miyoo/lib/gcc/arm-miyoo-linux-uclibcgnueabi/7.3.0/libgcov.a(_gcov_time_profiler.o)
                              platform/linux/emu.o (__gcov_time_profiler_counter)
/opt/miyoo/lib/gcc/arm-miyoo-linux-uclibcgnueabi/7.3.0/libgcov.a(_gcov.o)
                              /opt/miyoo/lib/gcc/arm-miyoo-linux-uclibcgnueabi/7.3.0/libgcov.a(_gcov_merge_add.o) (__gcov_read_counter)
/opt/miyoo/lib/gcc/arm-miyoo-linux-uclibcgnueabi/7.3.0/libgcc.a(_udivsi3.o)
                              pico/cd/gfx.o (__aeabi_uidiv)
/opt/miyoo/lib/gcc/arm-miyoo-linux-uclibcgnueabi/7.3.0/libgcc.a(_divsi3.o)
                              platform/common/menu_pico.o (__aeabi_idiv)
/opt/miyoo/lib/gcc/arm-miyoo-linux-uclibcgnueabi/7.3.0/libgcc.a(_arm_addsubdf3.o)
                              pico/sound/ym2612.o (__aeabi_dadd)
/opt/miyoo/lib/gcc/arm-miyoo-linux-uclibcgnueabi/7.3.0/libgcc.a(_arm_muldivdf3.o)
                              pico/memory.o (__aeabi_dmul)
/opt/miyoo/lib/gcc/arm-miyoo-linux-uclibcgnueabi/7.3.0/libgcc.a(_arm_cmpdf2.o)
                              pico/sound/ym2612.o (__aeabi_dcmpgt)
/opt/miyoo/lib/gcc/arm-miyoo-linux-uclibcgnueabi/7.3.0/libgcc.a(_arm_fixdfsi.o)
                              pico/memory.o (__aeabi_d2iz)
/opt/miyoo/lib/gcc/arm-miyoo-linux-uclibcgnueabi/7.3.0/libgcc.a(_arm_fixunsdfsi.o)
                              pico/sound/sn76496.o (__aeabi_d2uiz)
/opt/miyoo/lib/gcc/arm-miyoo-linux-uclibcgnueabi/7.3.0/libgcc.a(_arm_truncdfsf2.o)
                              platform/common/config_file.o (__aeabi_d2f)
/opt/miyoo/lib/gcc/arm-miyoo-linux-uclibcgnueabi/7.3.0/libgcc.a(_arm_addsubsf3.o)
                              platform/common/plat_sdl.o (__aeabi_fadd)
/opt/miyoo/lib/gcc/arm-miyoo-linux-uclibcgnueabi/7.3.0/libgcc.a(_arm_muldivsf3.o)
                              platform/common/plat_sdl.o (__aeabi_fmul)
/opt/miyoo/lib/gcc/arm-miyoo-linux-uclibcgnueabi/7.3.0/libgcc.a(_arm_fixsfsi.o)
                              platform/common/plat_sdl.o (__aeabi_f2iz)
/opt/miyoo/lib/gcc/arm-miyoo-linux-uclibcgnueabi/7.3.0/libgcc.a(_aeabi_ldivmod.o)
                              pico/32x/sh2soc.o (__aeabi_ldivmod)
/opt/miyoo/lib/gcc/arm-miyoo-linux-uclibcgnueabi/7.3.0/libgcc.a(_dvmd_lnx.o)
                              /opt/miyoo/lib/gcc/arm-miyoo-linux-uclibcgnueabi/7.3.0/libgcc.a(_aeabi_ldivmod.o) (__aeabi_ldiv0)
/opt/miyoo/lib/gcc/arm-miyoo-linux-uclibcgnueabi/7.3.0/libgcc.a(_popcountsi2.o)
                              /opt/miyoo/lib/gcc/arm-miyoo-linux-uclibcgnueabi/7.3.0/libgcov.a(_gcov.o) (__popcountsi2)
/opt/miyoo/lib/gcc/arm-miyoo-linux-uclibcgnueabi/7.3.0/libgcc.a(_udivmoddi4.o)
                              /opt/miyoo/lib/gcc/arm-miyoo-linux-uclibcgnueabi/7.3.0/libgcc.a(_aeabi_ldivmod.o) (__udivmoddi4)

As-needed library included to satisfy reference by file (symbol)

ld-uClibc.so.1                /opt/miyoo/lib/gcc/arm-miyoo-linux-uclibcgnueabi/7.3.0/libgcov.a(_gcov_indirect_call_profiler_v2.o) (__tls_get_addr)

Allocating common symbols
Common symbol       size              file

DrawLineDestIncrement
                    0x4               pico/draw.o
g_autostateld_opt   0x4               platform/common/menu_pico.o
drZ80               0x7c              pico/z80if.o
HighLnSpr           0x1e00            pico/draw.o
PicoStateProgressCB
                    0x4               pico/state.o
PicoIn              0x30              pico/pico.o
rom_fname_loaded    0x200             platform/common/emu.o
g_screen_ptr        0x4               platform/common/emu.o
carthw_ssf2_banks   0x8               pico/carthw/carthw.o
g_menuscreen_w      0x4               platform/common/menu_pico.o
g_menubg_ptr        0x4               platform/common/menu_pico.o
flip_after_sync     0x4               platform/common/emu.o
s68k_write16_map    0x400             pico/cd/memory.o
PicoCpuFS68k        0x4ac             pico/cd/sek.o
m68k_write16_map    0x400             pico/memory.o
rendlines           0x4               pico/draw.o
currentConfig       0x70              platform/common/emu.o
plat_sdl_screen     0x4               platform/libpicofe/plat_sdl.o
SekCycleCntS68k     0x4               pico/cd/sek.o
__gcov_var          0x1020            /opt/miyoo/lib/gcc/arm-miyoo-linux-uclibcgnueabi/7.3.0/libgcov.a(_gcov.o)
ym_tl_tab2          0x1a00            pico/sound/ym2612.o
m68k_read16_map     0x400             pico/memory.o
Pico32xDrawMode     0x4               pico/32x/draw.o
sn76496_regs        0x4               pico/sound/sn76496.o
g_menuscreen_ptr    0x4               platform/common/menu_pico.o
carthw_ssf2_active  0x4               pico/carthw/carthw.o
plat_sdl_quit_cb    0x4               platform/libpicofe/plat_sdl.o
tcache              0x4               cpu/drc/cmn.o
plat_sdl_gl_active  0x4               platform/libpicofe/plat_sdl.o
ym2612              0xbe0             pico/sound/ym2612.o
in_evdev_allow_abs_only
                    0x4               platform/libpicofe/linux/in_evdev.o
plat_sdl_overlay    0x4               platform/libpicofe/plat_sdl.o
tcache_default      0x200000          cpu/drc/cmn.o
s68k_read16_map     0x400             pico/cd/memory.o
carthw_chunks       0x4               pico/state.o
PicoPicohw          0x208             pico/pico/pico.o
rom_fname_reload    0x4               platform/common/emu.o
Pico32x             0xc0              pico/32x/32x.o
z80_write_map       0x20              pico/z80if.o
p32x_event_times    0xc               pico/32x/32x.o
PicoGameLoaded      0x4               pico/cart.o
pcd_event_times     0x10              pico/cd/mcd.o
PicoLoadStateHook   0x4               pico/state.o
ym_tl_tab           0x34000           pico/sound/ym2612.o
media_id_header     0x100             pico/media.o
plat_sdl_resize_cb  0x4               platform/libpicofe/plat_sdl.o
PicoScan32xEnd      0x4               pico/32x/draw.o
PicoCpuFM68k        0x4ac             pico/sek.o
PicoCartMemSetup    0x4               pico/cart.o
plat_target         0x34              platform/libpicofe/plat_dummy.o
Pico32xMem          0x4               pico/32x/memory.o
p32x_bios_m         0x4               pico/32x/memory.o
PicoMem             0x22180           pico/pico.o
rendstatus_old      0x4               pico/draw.o
p32x_bios_g         0x4               pico/32x/memory.o
PicoScan32xBegin    0x4               pico/32x/draw.o
s68k_read8_map      0x400             pico/cd/memory.o
g_menuscreen_h      0x4               platform/common/menu_pico.o
z80_read_map        0x20              pico/z80if.o
__gcov_root         0x10              /opt/miyoo/lib/gcc/arm-miyoo-linux-uclibcgnueabi/7.3.0/libgcov.a(_gcov.o)
p32x_bios_s         0x4               pico/32x/memory.o
sndout_current      0x1c              platform/libpicofe/sndout.o
Pico                0x344             pico/pico.o
__gcov_time_profiler_counter
                    0x8               /opt/miyoo/lib/gcc/arm-miyoo-linux-uclibcgnueabi/7.3.0/libgcov.a(_gcov_time_profiler.o)
pico_inp_mode       0x4               platform/common/emu.o
s68k_write8_map     0x400             pico/cd/memory.o
defaultConfig       0x70              platform/common/emu.o
g_menuscreen_pp     0x4               platform/common/menu_pico.o
SekCycleAimS68k     0x4               pico/cd/sek.o
g_argv              0x4               platform/common/main.o
sh2s                0x25b8            pico/32x/32x.o
PicoCartUnloadHook  0x4               pico/cart.o
cdda_out_buffer     0x1200            pico/sound/sound.o
cdd                 0x66c             pico/cd/cdd.o
m68k_write8_map     0x400             pico/memory.o
g_menubg_src_ptr    0x4               platform/common/menu_pico.o
m68k_read8_map      0x400             pico/memory.o

Discarded input sections

 .note.GNU-stack
                0x0000000000000000        0x0 /opt/miyoo/arm-miyoo-linux-uclibcgnueabi/sysroot/usr/lib/crt1.o
 .note.GNU-stack
                0x0000000000000000        0x0 /opt/miyoo/arm-miyoo-linux-uclibcgnueabi/sysroot/usr/lib/crti.o
 .note.GNU-stack
                0x0000000000000000        0x0 /opt/miyoo/lib/gcc/arm-miyoo-linux-uclibcgnueabi/7.3.0/crtbegin.o
 .note.GNU-stack
                0x0000000000000000        0x0 platform/opendingux/inputmap.o
 .note.GNU-stack
                0x0000000000000000        0x0 platform/linux/emu.o
 .note.GNU-stack
                0x0000000000000000        0x0 platform/linux/blit.o
 .note.GNU-stack
                0x0000000000000000        0x0 platform/common/plat_sdl.o
 .note.GNU-stack
                0x0000000000000000        0x0 platform/libpicofe/plat_sdl.o
 .note.GNU-stack
                0x0000000000000000        0x0 platform/libpicofe/in_sdl.o
 .note.GNU-stack
                0x0000000000000000        0x0 platform/libpicofe/plat_dummy.o
 .note.GNU-stack
                0x0000000000000000        0x0 platform/common/main.o
 .note.GNU-stack
                0x0000000000000000        0x0 platform/common/emu.o
 .note.GNU-stack
                0x0000000000000000        0x0 platform/common/menu_pico.o
 .note.GNU-stack
                0x0000000000000000        0x0 platform/common/config_file.o
 .note.GNU-stack
                0x0000000000000000        0x0 platform/libpicofe/input.o
 .note.GNU-stack
                0x0000000000000000        0x0 platform/libpicofe/readpng.o
 .note.GNU-stack
                0x0000000000000000        0x0 platform/libpicofe/fonts.o
 .note.GNU-stack
                0x0000000000000000        0x0 platform/libpicofe/linux/in_evdev.o
 .note.GNU-stack
                0x0000000000000000        0x0 platform/libpicofe/linux/plat.o
 .note.GNU-stack
                0x0000000000000000        0x0 platform/libpicofe/sndout.o
 .note.GNU-stack
                0x0000000000000000        0x0 platform/libpicofe/sndout_sdl.o
 .note.GNU-stack
                0x0000000000000000        0x0 platform/common/mp3.o
 .note.GNU-stack
                0x0000000000000000        0x0 platform/common/mp3_dummy.o
 .note.GNU-stack
                0x0000000000000000        0x0 unzip/unzip.o
 .note.GNU-stack
                0x0000000000000000        0x0 pico/pico.o
 .note.GNU-stack
                0x0000000000000000        0x0 pico/cart.o
 .note.GNU-stack
                0x0000000000000000        0x0 pico/memory.o
 .note.GNU-stack
                0x0000000000000000        0x0 pico/state.o
 .note.GNU-stack
                0x0000000000000000        0x0 pico/sek.o
 .note.GNU-stack
                0x0000000000000000        0x0 pico/z80if.o
 .note.GNU-stack
                0x0000000000000000        0x0 pico/videoport.o
 .note.GNU-stack
                0x0000000000000000        0x0 pico/draw2.o
 .note.GNU-stack
                0x0000000000000000        0x0 pico/draw.o
 .note.GNU-stack
                0x0000000000000000        0x0 pico/mode4.o
 .note.GNU-stack
                0x0000000000000000        0x0 pico/misc.o
 .note.GNU-stack
                0x0000000000000000        0x0 pico/eeprom.o
 .note.GNU-stack
                0x0000000000000000        0x0 pico/patch.o
 .note.GNU-stack
                0x0000000000000000        0x0 pico/debug.o
 .note.GNU-stack
                0x0000000000000000        0x0 pico/media.o
 .note.GNU-stack
                0x0000000000000000        0x0 pico/sms.o
 .note.GNU-stack
                0x0000000000000000        0x0 pico/cd/mcd.o
 .note.GNU-stack
                0x0000000000000000        0x0 pico/cd/memory.o
 .note.GNU-stack
                0x0000000000000000        0x0 pico/cd/sek.o
 .note.GNU-stack
                0x0000000000000000        0x0 pico/cd/cdc.o
 .note.GNU-stack
                0x0000000000000000        0x0 pico/cd/cdd.o
 .note.GNU-stack
                0x0000000000000000        0x0 pico/cd/cd_image.o
 .note.GNU-stack
                0x0000000000000000        0x0 pico/cd/cue.o
 .note.GNU-stack
                0x0000000000000000        0x0 pico/cd/gfx.o
 .note.GNU-stack
                0x0000000000000000        0x0 pico/cd/gfx_dma.o
 .note.GNU-stack
                0x0000000000000000        0x0 pico/cd/misc.o
 .note.GNU-stack
                0x0000000000000000        0x0 pico/cd/pcm.o
 .note.GNU-stack
                0x0000000000000000        0x0 pico/32x/32x.o
 .note.GNU-stack
                0x0000000000000000        0x0 pico/32x/memory.o
 .note.GNU-stack
                0x0000000000000000        0x0 pico/32x/draw.o
 .note.GNU-stack
                0x0000000000000000        0x0 pico/32x/sh2soc.o
 .note.GNU-stack
                0x0000000000000000        0x0 pico/32x/pwm.o
 .note.GNU-stack
                0x0000000000000000        0x0 pico/pico/pico.o
 .note.GNU-stack
                0x0000000000000000        0x0 pico/pico/memory.o
 .note.GNU-stack
                0x0000000000000000        0x0 pico/pico/xpcm.o
 .note.GNU-stack
                0x0000000000000000        0x0 pico/carthw/carthw.o
 .note.GNU-stack
                0x0000000000000000        0x0 pico/carthw/eeprom_spi.o
 .note.GNU-stack
                0x0000000000000000        0x0 pico/carthw/svp/svp.o
 .note.GNU-stack
                0x0000000000000000        0x0 pico/carthw/svp/memory.o
 .note.GNU-stack
                0x0000000000000000        0x0 pico/carthw/svp/ssp16.o
 .note.GNU-stack
                0x0000000000000000        0x0 pico/carthw/svp/compiler.o
 .note.GNU-stack
                0x0000000000000000        0x0 pico/sound/sound.o
 .note.GNU-stack
                0x0000000000000000        0x0 pico/sound/sn76496.o
 .note.GNU-stack
                0x0000000000000000        0x0 pico/sound/ym2612.o
 .note.GNU-stack
                0x0000000000000000        0x0 cpu/fame/famec.o
 .note.GNU-stack
                0x0000000000000000        0x0 cpu/drc/cmn.o
 .note.GNU-stack
                0x0000000000000000        0x0 cpu/sh2/sh2.o
 .note.GNU-stack
                0x0000000000000000        0x0 cpu/sh2/compiler.o
 .note.GNU-stack
                0x0000000000000000        0x0 cpu/sh2/mame/sh2pico.o
 .note.GNU-stack
                0x0000000000000000        0x0 /opt/miyoo/lib/gcc/arm-miyoo-linux-uclibcgnueabi/7.3.0/libgcov.a(_gcov_merge_add.o)
 .note.GNU-stack
                0x0000000000000000        0x0 /opt/miyoo/lib/gcc/arm-miyoo-linux-uclibcgnueabi/7.3.0/libgcov.a(_gcov_merge_single.o)
 .note.GNU-stack
                0x0000000000000000        0x0 /opt/miyoo/lib/gcc/arm-miyoo-linux-uclibcgnueabi/7.3.0/libgcov.a(_gcov_merge_ior.o)
 .note.GNU-stack
                0x0000000000000000        0x0 /opt/miyoo/lib/gcc/arm-miyoo-linux-uclibcgnueabi/7.3.0/libgcov.a(_gcov_merge_time_profile.o)
 .note.GNU-stack
                0x0000000000000000        0x0 /opt/miyoo/lib/gcc/arm-miyoo-linux-uclibcgnueabi/7.3.0/libgcov.a(_gcov_interval_profiler.o)
 .note.GNU-stack
                0x0000000000000000        0x0 /opt/miyoo/lib/gcc/arm-miyoo-linux-uclibcgnueabi/7.3.0/libgcov.a(_gcov_pow2_profiler.o)
 .note.GNU-stack
                0x0000000000000000        0x0 /opt/miyoo/lib/gcc/arm-miyoo-linux-uclibcgnueabi/7.3.0/libgcov.a(_gcov_one_value_profiler.o)
 .note.GNU-stack
                0x0000000000000000        0x0 /opt/miyoo/lib/gcc/arm-miyoo-linux-uclibcgnueabi/7.3.0/libgcov.a(_gcov_average_profiler.o)
 .note.GNU-stack
                0x0000000000000000        0x0 /opt/miyoo/lib/gcc/arm-miyoo-linux-uclibcgnueabi/7.3.0/libgcov.a(_gcov_ior_profiler.o)
 .note.GNU-stack
                0x0000000000000000        0x0 /opt/miyoo/lib/gcc/arm-miyoo-linux-uclibcgnueabi/7.3.0/libgcov.a(_gcov_indirect_call_profiler_v2.o)
 .note.GNU-stack
                0x0000000000000000        0x0 /opt/miyoo/lib/gcc/arm-miyoo-linux-uclibcgnueabi/7.3.0/libgcov.a(_gcov_time_profiler.o)
 .note.GNU-stack
                0x0000000000000000        0x0 /opt/miyoo/lib/gcc/arm-miyoo-linux-uclibcgnueabi/7.3.0/libgcov.a(_gcov.o)
 .note.GNU-stack
                0x0000000000000000        0x0 /opt/miyoo/lib/gcc/arm-miyoo-linux-uclibcgnueabi/7.3.0/libgcc.a(_udivsi3.o)
 .note.GNU-stack
                0x0000000000000000        0x0 /opt/miyoo/lib/gcc/arm-miyoo-linux-uclibcgnueabi/7.3.0/libgcc.a(_divsi3.o)
 .note.GNU-stack
                0x0000000000000000        0x0 /opt/miyoo/lib/gcc/arm-miyoo-linux-uclibcgnueabi/7.3.0/libgcc.a(_arm_addsubdf3.o)
 .note.GNU-stack
                0x0000000000000000        0x0 /opt/miyoo/lib/gcc/arm-miyoo-linux-uclibcgnueabi/7.3.0/libgcc.a(_arm_muldivdf3.o)
 .note.GNU-stack
                0x0000000000000000        0x0 /opt/miyoo/lib/gcc/arm-miyoo-linux-uclibcgnueabi/7.3.0/libgcc.a(_arm_cmpdf2.o)
 .note.GNU-stack
                0x0000000000000000        0x0 /opt/miyoo/lib/gcc/arm-miyoo-linux-uclibcgnueabi/7.3.0/libgcc.a(_arm_fixdfsi.o)
 .note.GNU-stack
                0x0000000000000000        0x0 /opt/miyoo/lib/gcc/arm-miyoo-linux-uclibcgnueabi/7.3.0/libgcc.a(_arm_fixunsdfsi.o)
 .note.GNU-stack
                0x0000000000000000        0x0 /opt/miyoo/lib/gcc/arm-miyoo-linux-uclibcgnueabi/7.3.0/libgcc.a(_arm_truncdfsf2.o)
 .note.GNU-stack
                0x0000000000000000        0x0 /opt/miyoo/lib/gcc/arm-miyoo-linux-uclibcgnueabi/7.3.0/libgcc.a(_arm_addsubsf3.o)
 .note.GNU-stack
                0x0000000000000000        0x0 /opt/miyoo/lib/gcc/arm-miyoo-linux-uclibcgnueabi/7.3.0/libgcc.a(_arm_muldivsf3.o)
 .note.GNU-stack
                0x0000000000000000        0x0 /opt/miyoo/lib/gcc/arm-miyoo-linux-uclibcgnueabi/7.3.0/libgcc.a(_arm_fixsfsi.o)
 .note.GNU-stack
                0x0000000000000000        0x0 /opt/miyoo/lib/gcc/arm-miyoo-linux-uclibcgnueabi/7.3.0/libgcc.a(_aeabi_ldivmod.o)
 .note.GNU-stack
                0x0000000000000000        0x0 /opt/miyoo/lib/gcc/arm-miyoo-linux-uclibcgnueabi/7.3.0/libgcc.a(_dvmd_lnx.o)
 .note.GNU-stack
                0x0000000000000000        0x0 /opt/miyoo/lib/gcc/arm-miyoo-linux-uclibcgnueabi/7.3.0/libgcc.a(_popcountsi2.o)
 .note.GNU-stack
                0x0000000000000000        0x0 /opt/miyoo/lib/gcc/arm-miyoo-linux-uclibcgnueabi/7.3.0/libgcc.a(_udivmoddi4.o)
 .note.GNU-stack
                0x0000000000000000        0x0 /opt/miyoo/lib/gcc/arm-miyoo-linux-uclibcgnueabi/7.3.0/crtend.o
 .note.GNU-stack
                0x0000000000000000        0x0 /opt/miyoo/arm-miyoo-linux-uclibcgnueabi/sysroot/usr/lib/crtn.o

Memory Configuration

Name             Origin             Length             Attributes
*default*        0x0000000000000000 0xffffffffffffffff

Linker script and memory map

LOAD /opt/miyoo/arm-miyoo-linux-uclibcgnueabi/sysroot/usr/lib/crt1.o
LOAD /opt/miyoo/arm-miyoo-linux-uclibcgnueabi/sysroot/usr/lib/crti.o
LOAD /opt/miyoo/lib/gcc/arm-miyoo-linux-uclibcgnueabi/7.3.0/crtbegin.o
LOAD platform/opendingux/inputmap.o
LOAD platform/linux/emu.o
LOAD platform/linux/blit.o
LOAD platform/common/plat_sdl.o
LOAD platform/libpicofe/plat_sdl.o
LOAD platform/libpicofe/in_sdl.o
LOAD platform/libpicofe/plat_dummy.o
LOAD platform/common/main.o
LOAD platform/common/emu.o
LOAD platform/common/menu_pico.o
LOAD platform/common/config_file.o
LOAD platform/libpicofe/input.o
LOAD platform/libpicofe/readpng.o
LOAD platform/libpicofe/fonts.o
LOAD platform/libpicofe/linux/in_evdev.o
LOAD platform/libpicofe/linux/plat.o
LOAD platform/libpicofe/sndout.o
LOAD platform/libpicofe/sndout_sdl.o
LOAD platform/libpicofe/arm_linux.o
LOAD platform/common/mp3.o
LOAD platform/common/mp3_dummy.o
LOAD unzip/unzip.o
LOAD pico/draw_arm.o
LOAD pico/draw2_arm.o
LOAD pico/memory_arm.o
LOAD pico/sound/ym2612_arm.o
LOAD pico/misc_arm.o
LOAD pico/cd/misc_arm.o
LOAD pico/cd/memory_arm.o
LOAD pico/sound/mix_arm.o
LOAD pico/pico.o
LOAD pico/cart.o
LOAD pico/memory.o
LOAD pico/state.o
LOAD pico/sek.o
LOAD pico/z80if.o
LOAD pico/videoport.o
LOAD pico/draw2.o
LOAD pico/draw.o
LOAD pico/mode4.o
LOAD pico/misc.o
LOAD pico/eeprom.o
LOAD pico/patch.o
LOAD pico/debug.o
LOAD pico/media.o
LOAD pico/sms.o
LOAD pico/cd/mcd.o
LOAD pico/cd/memory.o
LOAD pico/cd/sek.o
LOAD pico/cd/cdc.o
LOAD pico/cd/cdd.o
LOAD pico/cd/cd_image.o
LOAD pico/cd/cue.o
LOAD pico/cd/gfx.o
LOAD pico/cd/gfx_dma.o
LOAD pico/cd/misc.o
LOAD pico/cd/pcm.o
LOAD pico/32x/32x.o
LOAD pico/32x/memory.o
LOAD pico/32x/draw.o
LOAD pico/32x/sh2soc.o
LOAD pico/32x/pwm.o
LOAD pico/pico/pico.o
LOAD pico/pico/memory.o
LOAD pico/pico/xpcm.o
LOAD pico/carthw/carthw.o
LOAD pico/carthw/eeprom_spi.o
LOAD pico/carthw/svp/svp.o
LOAD pico/carthw/svp/memory.o
LOAD pico/carthw/svp/ssp16.o
LOAD pico/carthw/svp/stub_arm.o
LOAD pico/carthw/svp/compiler.o
LOAD pico/sound/sound.o
LOAD pico/sound/sn76496.o
LOAD pico/sound/ym2612.o
LOAD cpu/fame/famec.o
LOAD cpu/DrZ80/drz80.o
LOAD cpu/drc/cmn.o
LOAD cpu/sh2/sh2.o
LOAD cpu/sh2/compiler.o
LOAD cpu/sh2/mame/sh2pico.o
LOAD /opt/miyoo/arm-miyoo-linux-uclibcgnueabi/sysroot/usr/lib/libSDL.so
LOAD /opt/miyoo/arm-miyoo-linux-uclibcgnueabi/sysroot/usr/lib/libpthread.a
LOAD /opt/miyoo/arm-miyoo-linux-uclibcgnueabi/sysroot/usr/lib/libpng.so
LOAD /opt/miyoo/arm-miyoo-linux-uclibcgnueabi/sysroot/usr/lib/libm.a
LOAD /opt/miyoo/arm-miyoo-linux-uclibcgnueabi/sysroot/usr/lib/libz.so
LOAD /opt/miyoo/lib/gcc/arm-miyoo-linux-uclibcgnueabi/7.3.0/libgcov.a
LOAD /opt/miyoo/lib/gcc/arm-miyoo-linux-uclibcgnueabi/7.3.0/libgcc.a
LOAD /opt/miyoo/lib/gcc/arm-miyoo-linux-uclibcgnueabi/7.3.0/../../../../arm-miyoo-linux-uclibcgnueabi/lib/libgcc_s.so
START GROUP
LOAD /opt/miyoo/lib/gcc/arm-miyoo-linux-uclibcgnueabi/7.3.0/../../../../arm-miyoo-linux-uclibcgnueabi/lib/libgcc_s.so.1
LOAD /opt/miyoo/lib/gcc/arm-miyoo-linux-uclibcgnueabi/7.3.0/libgcc.a
END GROUP
LOAD /opt/miyoo/arm-miyoo-linux-uclibcgnueabi/sysroot/usr/lib/libc.so
START GROUP
LOAD /opt/miyoo/arm-miyoo-linux-uclibcgnueabi/sysroot/lib/libc.so.1
LOAD /opt/miyoo/arm-miyoo-linux-uclibcgnueabi/sysroot/usr/lib/uclibc_nonshared.a
LOAD /opt/miyoo/arm-miyoo-linux-uclibcgnueabi/sysroot/usr/lib/libpthread_nonshared.a
LOAD /opt/miyoo/arm-miyoo-linux-uclibcgnueabi/sysroot/lib/ld-uClibc.so.1
END GROUP
LOAD /opt/miyoo/lib/gcc/arm-miyoo-linux-uclibcgnueabi/7.3.0/libgcc.a
LOAD /opt/miyoo/lib/gcc/arm-miyoo-linux-uclibcgnueabi/7.3.0/../../../../arm-miyoo-linux-uclibcgnueabi/lib/libgcc_s.so
START GROUP
LOAD /opt/miyoo/lib/gcc/arm-miyoo-linux-uclibcgnueabi/7.3.0/../../../../arm-miyoo-linux-uclibcgnueabi/lib/libgcc_s.so.1
LOAD /opt/miyoo/lib/gcc/arm-miyoo-linux-uclibcgnueabi/7.3.0/libgcc.a
END GROUP
LOAD /opt/miyoo/lib/gcc/arm-miyoo-linux-uclibcgnueabi/7.3.0/crtend.o
LOAD /opt/miyoo/arm-miyoo-linux-uclibcgnueabi/sysroot/usr/lib/crtn.o
                [!provide]                        PROVIDE (__executable_start = SEGMENT_START ("text-segment", 0x10000))
                0x0000000000010154                . = (SEGMENT_START ("text-segment", 0x10000) + SIZEOF_HEADERS)

.interp         0x0000000000010154       0x14
 *(.interp)
 .interp        0x0000000000010154       0x14 /opt/miyoo/arm-miyoo-linux-uclibcgnueabi/sysroot/usr/lib/crt1.o

.note.gnu.build-id
 *(.note.gnu.build-id)

.hash           0x0000000000010168      0x4c4
 *(.hash)
 .hash          0x0000000000010168      0x4c4 /opt/miyoo/arm-miyoo-linux-uclibcgnueabi/sysroot/usr/lib/crt1.o

.gnu.hash       0x000000000001062c      0x538
 *(.gnu.hash)
 .gnu.hash      0x000000000001062c      0x538 /opt/miyoo/arm-miyoo-linux-uclibcgnueabi/sysroot/usr/lib/crt1.o

.dynsym         0x0000000000010b64      0xac0
 *(.dynsym)
 .dynsym        0x0000000000010b64      0xac0 /opt/miyoo/arm-miyoo-linux-uclibcgnueabi/sysroot/usr/lib/crt1.o

.dynstr         0x0000000000011624      0x708
 *(.dynstr)
 .dynstr        0x0000000000011624      0x708 /opt/miyoo/arm-miyoo-linux-uclibcgnueabi/sysroot/usr/lib/crt1.o

.gnu.version    0x0000000000011d2c      0x158
 *(.gnu.version)
 .gnu.version   0x0000000000011d2c      0x158 /opt/miyoo/arm-miyoo-linux-uclibcgnueabi/sysroot/usr/lib/crt1.o

.gnu.version_d  0x0000000000011e84        0x0
 *(.gnu.version_d)
 .gnu.version_d
                0x0000000000011e84        0x0 /opt/miyoo/arm-miyoo-linux-uclibcgnueabi/sysroot/usr/lib/crt1.o

.gnu.version_r  0x0000000000011e84       0x20
 *(.gnu.version_r)
 .gnu.version_r
                0x0000000000011e84       0x20 /opt/miyoo/arm-miyoo-linux-uclibcgnueabi/sysroot/usr/lib/crt1.o

.rel.dyn        0x0000000000011ea4       0x18
 *(.rel.init)
 *(.rel.text .rel.text.* .rel.gnu.linkonce.t.*)
 *(.rel.fini)
 *(.rel.rodata .rel.rodata.* .rel.gnu.linkonce.r.*)
 *(.rel.data.rel.ro .rel.data.rel.ro.* .rel.gnu.linkonce.d.rel.ro.*)
 .rel.data.rel.ro
                0x0000000000011ea4        0x0 /opt/miyoo/arm-miyoo-linux-uclibcgnueabi/sysroot/usr/lib/crt1.o
 *(.rel.data .rel.data.* .rel.gnu.linkonce.d.*)
 *(.rel.tdata .rel.tdata.* .rel.gnu.linkonce.td.*)
 *(.rel.tbss .rel.tbss.* .rel.gnu.linkonce.tb.*)
 *(.rel.ctors)
 *(.rel.dtors)
 *(.rel.got)
 .rel.got       0x0000000000011ea4        0x8 /opt/miyoo/arm-miyoo-linux-uclibcgnueabi/sysroot/usr/lib/crt1.o
 *(.rel.bss .rel.bss.* .rel.gnu.linkonce.b.*)
 .rel.bss       0x0000000000011eac       0x10 /opt/miyoo/arm-miyoo-linux-uclibcgnueabi/sysroot/usr/lib/crt1.o
                [!provide]                        PROVIDE (__rel_iplt_start = .)
 *(.rel.iplt)
 .rel.iplt      0x0000000000011ebc        0x0 /opt/miyoo/arm-miyoo-linux-uclibcgnueabi/sysroot/usr/lib/crt1.o
                [!provide]                        PROVIDE (__rel_iplt_end = .)

.rela.dyn       0x0000000000011ebc        0x0
 *(.rela.init)
 *(.rela.text .rela.text.* .rela.gnu.linkonce.t.*)
 *(.rela.fini)
 *(.rela.rodata .rela.rodata.* .rela.gnu.linkonce.r.*)
 *(.rela.data .rela.data.* .rela.gnu.linkonce.d.*)
 *(.rela.tdata .rela.tdata.* .rela.gnu.linkonce.td.*)
 *(.rela.tbss .rela.tbss.* .rela.gnu.linkonce.tb.*)
 *(.rela.ctors)
 *(.rela.dtors)
 *(.rela.got)
 *(.rela.bss .rela.bss.* .rela.gnu.linkonce.b.*)
                [!provide]                        PROVIDE (__rela_iplt_start = .)
 *(.rela.iplt)
                [!provide]                        PROVIDE (__rela_iplt_end = .)

.rel.plt        0x0000000000011ebc      0x4f0
 *(.rel.plt)
 .rel.plt       0x0000000000011ebc      0x4f0 /opt/miyoo/arm-miyoo-linux-uclibcgnueabi/sysroot/usr/lib/crt1.o

.rela.plt
 *(.rela.plt)

.init           0x00000000000123ac       0x10
 *(SORT_NONE(.init))
 .init          0x00000000000123ac        0xc /opt/miyoo/arm-miyoo-linux-uclibcgnueabi/sysroot/usr/lib/crti.o
                0x00000000000123ac                _init
 .init          0x00000000000123b8        0x4 /opt/miyoo/arm-miyoo-linux-uclibcgnueabi/sysroot/usr/lib/crtn.o

.plt            0x00000000000123bc      0x77c
 *(.plt)
 .plt           0x00000000000123bc      0x77c /opt/miyoo/arm-miyoo-linux-uclibcgnueabi/sysroot/usr/lib/crt1.o
                0x00000000000123d0                opendir
                0x00000000000123dc                SDL_JoystickOpen
                0x00000000000123e8                fdopen
                0x00000000000123f4                SDL_UnlockSurface
                0x0000000000012400                memcmp
                0x000000000001240c                qsort
                0x0000000000012418                ioctl
                0x0000000000012424                png_set_IHDR@@PNG16_0
                0x0000000000012430                remove
                0x000000000001243c                abort
                0x0000000000012448                gzclose
                0x0000000000012454                png_create_write_struct@@PNG16_0
                0x0000000000012460                realloc
                0x000000000001246c                __uClibc_main
                0x0000000000012478                SDL_WM_SetCaption
                0x0000000000012484                sscanf
                0x0000000000012490                gettimeofday
                0x000000000001249c                SDL_DisplayYUVOverlay
                0x00000000000124a8                SDL_JoystickName
                0x00000000000124b4                SDL_Quit
                0x00000000000124c0                inflate
                0x00000000000124cc                SDL_Delay
                0x00000000000124d8                access
                0x00000000000124e4                SDL_GetError
                0x00000000000124f0                SDL_Flip
                0x00000000000124fc                snprintf
                0x0000000000012508                png_write_info@@PNG16_0
                0x0000000000012514                png_set_longjmp_fn@@PNG16_0
                0x000000000001252c                getpid
                0x0000000000012538                strcmp
                0x0000000000012544                time
                0x0000000000012550                SDL_JoystickClose
                0x000000000001255c                inflateReset
                0x0000000000012568                gzeof
                0x0000000000012574                inflateInit2_
                0x0000000000012580                memset
                0x000000000001258c                stpcpy
                0x0000000000012598                SDL_QuitSubSystem
                0x00000000000125a4                alphasort
                0x00000000000125b0                png_destroy_write_struct@@PNG16_0
                0x00000000000125bc                malloc
                0x00000000000125c8                getcwd
                0x00000000000125d4                fcntl64
                0x00000000000125e0                memmove
                0x00000000000125ec                SDL_VideoDriverName
                0x00000000000125f8                gzread
                0x0000000000012604                strcat
                0x0000000000012610                rand
                0x000000000001261c                fflush
                0x0000000000012628                log
                0x0000000000012634                strncmp
                0x0000000000012640                strcpy
                0x000000000001264c                strrchr
                0x0000000000012658                fstat
                0x0000000000012664                closedir
                0x0000000000012670                fclose
                0x000000000001267c                strdup
                0x0000000000012688                sleep
                0x0000000000012694                open
                0x00000000000126a0                pow
                0x00000000000126ac                png_read_png@@PNG16_0
                0x00000000000126b8                SDL_PauseAudio
                0x00000000000126c4                strstr
                0x00000000000126d0                SDL_NumJoysticks
                0x00000000000126dc                vfprintf
                0x00000000000126e8                png_get_rows@@PNG16_0
                0x00000000000126f4                munmap
                0x0000000000012700                png_destroy_read_struct@@PNG16_0
                0x000000000001270c                perror
                0x0000000000012718                strchr
                0x0000000000012724                strncasecmp
                0x0000000000012730                png_get_image_height@@PNG16_0
                0x000000000001273c                rewind
                0x0000000000012748                ftell
                0x0000000000012754                SDL_JoystickEventState
                0x0000000000012760                SDL_PushEvent
                0x000000000001276c                png_create_info_struct@@PNG16_0
                0x0000000000012778                printf
                0x0000000000012784                SDL_CloseAudio
                0x0000000000012790                fopen64
                0x000000000001279c                mremap
                0x00000000000127a8                fwrite
                0x00000000000127b4                SDL_LockYUVOverlay
                0x00000000000127c0                readlink
                0x00000000000127cc                strncpy
                0x00000000000127d8                putchar
                0x00000000000127e4                png_get_bit_depth@@PNG16_0
                0x00000000000127fc                exit
                0x0000000000012808                raise
                0x0000000000012814                png_write_end@@PNG16_0
                0x0000000000012820                png_write_image@@PNG16_0
                0x000000000001282c                fprintf
                0x0000000000012838                vprintf
                0x0000000000012844                gzsetparams
                0x0000000000012850                floor
                0x000000000001285c                SDL_CreateYUVOverlay
                0x0000000000012868                fgets
                0x0000000000012874                inflateEnd
                0x0000000000012880                strncat
                0x000000000001288c                strtoul
                0x0000000000012898                fread
                0x00000000000128a4                close
                0x00000000000128b0                gmtime
                0x00000000000128bc                SDL_Init
                0x00000000000128c8                setlocale
                0x00000000000128d4                sin
                0x00000000000128e0                calloc
                0x00000000000128ec                png_get_image_width@@PNG16_0
                0x00000000000128f8                setbuf
                0x0000000000012904                read
                0x0000000000012910                gzwrite
                0x000000000001291c                SDL_UnlockYUVOverlay
                0x0000000000012928                SDL_FreeYUVOverlay
                0x0000000000012934                SDL_SetVideoMode
                0x0000000000012940                __errno_location
                0x000000000001294c                mkdir
                0x0000000000012958                fcntl
                0x0000000000012964                SDL_InitSubSystem
                0x0000000000012970                __tls_get_addr
                0x000000000001297c                vsnprintf
                0x0000000000012988                SDL_LockSurface
                0x0000000000012994                localtime
                0x00000000000129a0                gzseek
                0x00000000000129ac                mprotect
                0x00000000000129b8                feof
                0x00000000000129c4                crc32
                0x00000000000129d0                atof
                0x00000000000129dc                png_init_io@@PNG16_0
                0x00000000000129e8                free
                0x00000000000129f4                strftime
                0x0000000000012a00                atoi
                0x0000000000012a0c                stat
                0x0000000000012a18                _setjmp
                0x0000000000012a24                png_create_read_struct@@PNG16_0
                0x0000000000012a30                puts
                0x0000000000012a3c                fopen
                0x0000000000012a48                longjmp
                0x0000000000012a54                SDL_PeepEvents
                0x0000000000012a60                select
                0x0000000000012a6c                fileno
                0x0000000000012a78                SDL_GetVideoInfo
                0x0000000000012a84                __aeabi_read_tp
                0x0000000000012a90                sprintf
                0x0000000000012a9c                getenv
                0x0000000000012aa8                open64
                0x0000000000012ab4                memcpy
                0x0000000000012ac0                strlen
                0x0000000000012acc                scandir
                0x0000000000012ad8                strtol
                0x0000000000012ae4                usleep
                0x0000000000012af0                mmap
                0x0000000000012afc                fseek
                0x0000000000012b08                strcasecmp
                0x0000000000012b14                SDL_OpenAudio
                0x0000000000012b20                gzopen
                0x0000000000012b2c                SDL_PumpEvents

.iplt           0x0000000000012b38        0x0
 *(.iplt)
 .iplt          0x0000000000012b38        0x0 /opt/miyoo/arm-miyoo-linux-uclibcgnueabi/sysroot/usr/lib/crt1.o

.text           0x0000000000012b40   0x198ef0
 *(.text.unlikely .text.*_unlikely .text.unlikely.*)
 .text.unlikely
                0x0000000000012b40      0x288 pico/cart.o
 .text.unlikely
                0x0000000000012dc8      0x170 cpu/fame/famec.o
 .text.unlikely
                0x0000000000012f38       0xf4 cpu/sh2/compiler.o
 *(.text.exit .text.exit.*)
 .text.exit     0x000000000001302c        0x4 platform/linux/emu.o
 .text.exit     0x0000000000013030        0x4 platform/linux/blit.o
 .text.exit     0x0000000000013034        0x4 platform/common/plat_sdl.o
 .text.exit     0x0000000000013038        0x4 platform/libpicofe/plat_sdl.o
 .text.exit     0x000000000001303c        0x4 platform/libpicofe/in_sdl.o
 .text.exit     0x0000000000013040        0x4 platform/libpicofe/plat_dummy.o
 .text.exit     0x0000000000013044        0x4 platform/common/main.o
 .text.exit     0x0000000000013048        0x4 platform/common/emu.o
 .text.exit     0x000000000001304c        0x4 platform/common/menu_pico.o
 .text.exit     0x0000000000013050        0x4 platform/common/config_file.o
 .text.exit     0x0000000000013054        0x4 platform/libpicofe/input.o
 .text.exit     0x0000000000013058        0x4 platform/libpicofe/readpng.o
 .text.exit     0x000000000001305c        0x4 platform/libpicofe/fonts.o
 .text.exit     0x0000000000013060        0x4 platform/libpicofe/linux/in_evdev.o
 .text.exit     0x0000000000013064        0x4 platform/libpicofe/linux/plat.o
 .text.exit     0x0000000000013068        0x4 platform/libpicofe/sndout.o
 .text.exit     0x000000000001306c        0x4 platform/libpicofe/sndout_sdl.o
 .text.exit     0x0000000000013070        0x4 platform/common/mp3.o
 .text.exit     0x0000000000013074        0x4 platform/common/mp3_dummy.o
 .text.exit     0x0000000000013078        0x4 unzip/unzip.o
 .text.exit     0x000000000001307c        0x4 pico/pico.o
 .text.exit     0x0000000000013080        0x4 pico/cart.o
 .text.exit     0x0000000000013084        0x4 pico/memory.o
 .text.exit     0x0000000000013088        0x4 pico/state.o
 .text.exit     0x000000000001308c        0x4 pico/sek.o
 .text.exit     0x0000000000013090        0x4 pico/z80if.o
 .text.exit     0x0000000000013094        0x4 pico/videoport.o
 .text.exit     0x0000000000013098        0x4 pico/draw2.o
 .text.exit     0x000000000001309c        0x4 pico/draw.o
 .text.exit     0x00000000000130a0        0x4 pico/mode4.o
 .text.exit     0x00000000000130a4        0x4 pico/eeprom.o
 .text.exit     0x00000000000130a8        0x4 pico/patch.o
 .text.exit     0x00000000000130ac        0x4 pico/debug.o
 .text.exit     0x00000000000130b0        0x4 pico/media.o
 .text.exit     0x00000000000130b4        0x4 pico/sms.o
 .text.exit     0x00000000000130b8        0x4 pico/cd/mcd.o
 .text.exit     0x00000000000130bc        0x4 pico/cd/memory.o
 .text.exit     0x00000000000130c0        0x4 pico/cd/sek.o
 .text.exit     0x00000000000130c4        0x4 pico/cd/cdc.o
 .text.exit     0x00000000000130c8        0x4 pico/cd/cdd.o
 .text.exit     0x00000000000130cc        0x4 pico/cd/cd_image.o
 .text.exit     0x00000000000130d0        0x4 pico/cd/cue.o
 .text.exit     0x00000000000130d4        0x4 pico/cd/gfx.o
 .text.exit     0x00000000000130d8        0x4 pico/cd/gfx_dma.o
 .text.exit     0x00000000000130dc        0x4 pico/cd/pcm.o
 .text.exit     0x00000000000130e0        0x4 pico/32x/32x.o
 .text.exit     0x00000000000130e4        0x4 pico/32x/memory.o
 .text.exit     0x00000000000130e8        0x4 pico/32x/draw.o
 .text.exit     0x00000000000130ec        0x4 pico/32x/sh2soc.o
 .text.exit     0x00000000000130f0        0x4 pico/32x/pwm.o
 .text.exit     0x00000000000130f4        0x4 pico/pico/pico.o
 .text.exit     0x00000000000130f8        0x4 pico/pico/memory.o
 .text.exit     0x00000000000130fc        0x4 pico/pico/xpcm.o
 .text.exit     0x0000000000013100        0x4 pico/carthw/carthw.o
 .text.exit     0x0000000000013104        0x4 pico/carthw/eeprom_spi.o
 .text.exit     0x0000000000013108        0x4 pico/carthw/svp/svp.o
 .text.exit     0x000000000001310c        0x4 pico/carthw/svp/memory.o
 .text.exit     0x0000000000013110        0x4 pico/carthw/svp/ssp16.o
 .text.exit     0x0000000000013114        0x4 pico/carthw/svp/compiler.o
 .text.exit     0x0000000000013118        0x4 pico/sound/sound.o
 .text.exit     0x000000000001311c        0x4 pico/sound/sn76496.o
 .text.exit     0x0000000000013120        0x4 pico/sound/ym2612.o
 .text.exit     0x0000000000013124        0x4 cpu/fame/famec.o
 .text.exit     0x0000000000013128        0x4 cpu/drc/cmn.o
 .text.exit     0x000000000001312c        0x4 cpu/sh2/sh2.o
 .text.exit     0x0000000000013130        0x4 cpu/sh2/compiler.o
 .text.exit     0x0000000000013134        0x4 cpu/sh2/mame/sh2pico.o
 *(.text.startup .text.startup.*)
 .text.startup  0x0000000000013138        0xc platform/linux/emu.o
 .text.startup  0x0000000000013144        0xc platform/linux/blit.o
 .text.startup  0x0000000000013150        0xc platform/common/plat_sdl.o
 .text.startup  0x000000000001315c        0xc platform/libpicofe/plat_sdl.o
 .text.startup  0x0000000000013168        0xc platform/libpicofe/in_sdl.o
 .text.startup  0x0000000000013174        0xc platform/libpicofe/plat_dummy.o
 .text.startup  0x0000000000013180      0x468 platform/common/main.o
                0x0000000000013180                main
 .text.startup  0x00000000000135e8        0xc platform/common/emu.o
 .text.startup  0x00000000000135f4        0xc platform/common/menu_pico.o
 .text.startup  0x0000000000013600        0xc platform/common/config_file.o
 .text.startup  0x000000000001360c        0xc platform/libpicofe/input.o
 .text.startup  0x0000000000013618        0xc platform/libpicofe/readpng.o
 .text.startup  0x0000000000013624        0xc platform/libpicofe/fonts.o
 .text.startup  0x0000000000013630        0xc platform/libpicofe/linux/in_evdev.o
 .text.startup  0x000000000001363c        0xc platform/libpicofe/linux/plat.o
 .text.startup  0x0000000000013648        0xc platform/libpicofe/sndout.o
 .text.startup  0x0000000000013654        0xc platform/libpicofe/sndout_sdl.o
 .text.startup  0x0000000000013660        0xc platform/common/mp3.o
 .text.startup  0x000000000001366c        0xc platform/common/mp3_dummy.o
 .text.startup  0x0000000000013678        0xc unzip/unzip.o
 .text.startup  0x0000000000013684        0xc pico/pico.o
 .text.startup  0x0000000000013690        0xc pico/cart.o
 .text.startup  0x000000000001369c        0xc pico/memory.o
 .text.startup  0x00000000000136a8        0xc pico/state.o
 .text.startup  0x00000000000136b4        0xc pico/sek.o
 .text.startup  0x00000000000136c0        0xc pico/z80if.o
 .text.startup  0x00000000000136cc        0xc pico/videoport.o
 .text.startup  0x00000000000136d8        0xc pico/draw2.o
 .text.startup  0x00000000000136e4        0xc pico/draw.o
 .text.startup  0x00000000000136f0        0xc pico/mode4.o
 .text.startup  0x00000000000136fc        0xc pico/eeprom.o
 .text.startup  0x0000000000013708        0xc pico/patch.o
 .text.startup  0x0000000000013714        0xc pico/debug.o
 .text.startup  0x0000000000013720        0xc pico/media.o
 .text.startup  0x000000000001372c        0xc pico/sms.o
 .text.startup  0x0000000000013738        0xc pico/cd/mcd.o
 .text.startup  0x0000000000013744        0xc pico/cd/memory.o
 .text.startup  0x0000000000013750        0xc pico/cd/sek.o
 .text.startup  0x000000000001375c        0xc pico/cd/cdc.o
 .text.startup  0x0000000000013768        0xc pico/cd/cdd.o
 .text.startup  0x0000000000013774        0xc pico/cd/cd_image.o
 .text.startup  0x0000000000013780        0xc pico/cd/cue.o
 .text.startup  0x000000000001378c        0xc pico/cd/gfx.o
 .text.startup  0x0000000000013798        0xc pico/cd/gfx_dma.o
 .text.startup  0x00000000000137a4        0xc pico/cd/pcm.o
 .text.startup  0x00000000000137b0        0xc pico/32x/32x.o
 .text.startup  0x00000000000137bc        0xc pico/32x/memory.o
 .text.startup  0x00000000000137c8        0xc pico/32x/draw.o
 .text.startup  0x00000000000137d4        0xc pico/32x/sh2soc.o
 .text.startup  0x00000000000137e0        0xc pico/32x/pwm.o
 .text.startup  0x00000000000137ec        0xc pico/pico/pico.o
 .text.startup  0x00000000000137f8        0xc pico/pico/memory.o
 .text.startup  0x0000000000013804        0xc pico/pico/xpcm.o
 .text.startup  0x0000000000013810        0xc pico/carthw/carthw.o
 .text.startup  0x000000000001381c        0xc pico/carthw/eeprom_spi.o
 .text.startup  0x0000000000013828        0xc pico/carthw/svp/svp.o
 .text.startup  0x0000000000013834        0xc pico/carthw/svp/memory.o
 .text.startup  0x0000000000013840        0xc pico/carthw/svp/ssp16.o
 .text.startup  0x000000000001384c        0xc pico/carthw/svp/compiler.o
 .text.startup  0x0000000000013858        0xc pico/sound/sound.o
 .text.startup  0x0000000000013864        0xc pico/sound/sn76496.o
 .text.startup  0x0000000000013870        0xc pico/sound/ym2612.o
 .text.startup  0x000000000001387c        0xc cpu/fame/famec.o
 .text.startup  0x0000000000013888        0xc cpu/drc/cmn.o
 .text.startup  0x0000000000013894        0xc cpu/sh2/sh2.o
 .text.startup  0x00000000000138a0        0xc cpu/sh2/compiler.o
 .text.startup  0x00000000000138ac        0xc cpu/sh2/mame/sh2pico.o
 *(.text.hot .text.hot.*)
 *(.text .stub .text.* .gnu.linkonce.t.*)
 .text          0x00000000000138b8       0x3c /opt/miyoo/arm-miyoo-linux-uclibcgnueabi/sysroot/usr/lib/crt1.o
                0x00000000000138b8                _start
 .text          0x00000000000138f4        0x0 /opt/miyoo/arm-miyoo-linux-uclibcgnueabi/sysroot/usr/lib/crti.o
 .text          0x00000000000138f4       0xdc /opt/miyoo/lib/gcc/arm-miyoo-linux-uclibcgnueabi/7.3.0/crtbegin.o
 .text          0x00000000000139d0        0x0 platform/opendingux/inputmap.o
 .text          0x00000000000139d0     0x1438 platform/linux/emu.o
                0x00000000000139d0                plat_mem_get_for_drc
                0x0000000000013a50                plat_wait_till_us
                0x0000000000013b38                emu_video_mode_change
                0x0000000000013bfc                plat_debug_cat
                0x0000000000013c78                pemu_sound_start
                0x0000000000013d08                pemu_forced_frame
                0x0000000000013e18                plat_update_volume
                0x0000000000013e98                plat_status_msg_clear
                0x0000000000013f6c                plat_video_toggle_renderer
                0x0000000000014270                pemu_finalize_frame
                0x00000000000146e4                pemu_validate_config
                0x0000000000014760                pemu_prep_defconfig
                0x00000000000147e0                plat_status_msg_busy_next
                0x0000000000014998                plat_status_msg_busy_first
                0x0000000000014a30                pemu_loop_end
                0x0000000000014bbc                pemu_loop_prep
 .text          0x0000000000014e08      0x5a0 platform/linux/blit.o
                0x0000000000014e08                rotated_blit16
                0x0000000000014e88                rotated_blit8
                0x0000000000014f08                vidcpy_m2_rot
                0x0000000000014f88                vidcpy_m2
                0x00000000000151a8                bgr444_to_rgb32_sh
                0x00000000000152d8                bgr444_to_rgb32
 .text          0x00000000000153a8     0x1228 platform/common/plat_sdl.o
                0x00000000000153a8                plat_finish
                0x00000000000154e0                plat_early_init
                0x0000000000015560                plat_video_loop_prepare
                0x0000000000015700                plat_video_menu_leave
                0x0000000000015780                plat_video_menu_begin
                0x00000000000158cc                plat_video_menu_enter
                0x000000000001598c                plat_video_wait_vsync
                0x0000000000015a08                rgb565_to_uyvy
                0x0000000000015be0                plat_video_menu_end
                0x0000000000015dfc                plat_video_flip
                0x000000000001603c                bgr_to_uyvy_init
                0x0000000000016364                plat_init
 .text          0x00000000000165d0     0x1274 platform/libpicofe/plat_sdl.o
                0x00000000000165d0                plat_sdl_overlay_clear
                0x00000000000166c8                plat_sdl_finish
                0x0000000000016818                plat_sdl_change_video_mode
                0x0000000000016f14                plat_sdl_init
                0x00000000000175a0                plat_sdl_event_handler
 *fill*         0x0000000000017844        0x4 
 .text          0x0000000000017848     0x13f4 platform/libpicofe/in_sdl.o
                0x0000000000018098                in_sdl_init
 *fill*         0x0000000000018c3c        0x4 
 .text          0x0000000000018c40      0x180 platform/libpicofe/plat_dummy.o
                0x0000000000018c40                plat_target_setup_input
                0x0000000000018cc0                plat_target_finish
                0x0000000000018d40                plat_target_init
 .text          0x0000000000018dc0      0x36c platform/common/main.o
                0x0000000000018dc0                parse_cmd_line
 *fill*         0x000000000001912c        0x4 
 .text          0x0000000000019130     0x842c platform/common/emu.o
                0x00000000000197b0                emu_sound_wait
                0x0000000000019878                emu_sound_stop
                0x0000000000019940                emu_sound_start
                0x0000000000019be8                emu_cmn_forced_frame
                0x0000000000019dc8                emu_reset_game
                0x0000000000019efc                emu_text_out16_rot
                0x000000000001a350                emu_text_out8_rot
                0x000000000001a74c                emu_text_out16
                0x000000000001aaec                emu_osd_text16
                0x000000000001acac                emu_text_out8
                0x000000000001b05c                emu_set_defconfig
                0x000000000001b11c                emu_prep_defconfig
                0x000000000001b23c                emu_make_path
                0x000000000001b354                emu_swap_cd
                0x000000000001b484                emu_status_msg
                0x000000000001b5a4                run_events_pico
                0x000000000001ba7c                emu_set_fastforward
                0x000000000001bd58                emu_get_save_fname
                0x000000000001c1d4                emu_save_load_game
                0x000000000001c798                emu_update_input
                0x000000000001d2bc                emu_loop
                0x000000000001e180                emu_get_game_name
                0x000000000001e3a4                emu_32x_startup
                0x000000000001e85c                emu_finish
                0x000000000001ea00                emu_init
                0x000000000001ebb8                emu_write_config
                0x000000000001ee14                emu_read_config
                0x00000000000202c8                emu_check_save_file
                0x000000000002060c                emu_reload_rom
 *fill*         0x000000000002155c        0x4 
 .text          0x0000000000021560     0xfb24 platform/common/menu_pico.o
                0x000000000002215c                me_list_get_next
                0x00000000000223a4                me_list_get_first
                0x0000000000022438                menu_update_msg
                0x0000000000023ba4                menu_init_base
                0x0000000000024ab8                menu_romload_prepare
                0x0000000000025658                menuscreen_memset_lines
                0x00000000000268bc                text_out16
                0x0000000000029a8c                menu_romload_end
                0x000000000002ea64                menu_loop_tray
                0x000000000002fb7c                menu_init
                0x00000000000305d4                menu_loop
 *fill*         0x0000000000031084        0x4 
 .text          0x0000000000031088     0x3244 platform/common/config_file.o
                0x000000000003124c                config_get_var_val
                0x000000000003160c                config_readsect
                0x00000000000332e4                config_readlrom
                0x0000000000033624                config_writelrom
                0x00000000000339bc                config_write
 *fill*         0x00000000000342cc        0x4 
 .text          0x00000000000342d0     0x519c platform/libpicofe/input.o
                0x00000000000343e0                in_init
                0x0000000000034484                in_register_driver
                0x0000000000034c38                in_debug_dump
                0x0000000000034de4                in_clean_binds
                0x0000000000034f80                in_config_bind_key
                0x0000000000035410                in_config_parse_dev
                0x0000000000035c98                in_bind_key
                0x0000000000035f2c                in_get_key_code
                0x00000000000360ac                in_get_key_name
                0x00000000000363c0                in_name_to_id
                0x00000000000366e8                in_get_dev_name
                0x0000000000036834                in_get_config
                0x0000000000036a0c                in_get_dev_def_binds
                0x0000000000036adc                in_get_dev_binds
                0x0000000000036b8c                in_update_keycode
                0x00000000000376f4                in_set_config
                0x0000000000037ab8                in_menu_wait_any
                0x0000000000037bdc                in_menu_wait
                0x0000000000037dd8                in_update_analog
                0x0000000000037f14                in_update
                0x00000000000380ac                in_probe
                0x000000000003848c                in_combos_do
                0x00000000000388dc                in_combos_find
                0x0000000000038b74                in_unbind_all
                0x0000000000038dac                in_register
 *fill*         0x000000000003946c        0x4 
 .text          0x0000000000039470     0x1304 platform/libpicofe/readpng.o
                0x0000000000039470                writepng
                0x0000000000039970                readpng
 *fill*         0x000000000003a774        0x4 
 .text          0x000000000003a778      0xe50 platform/libpicofe/fonts.o
                0x000000000003a778                basic_text_out_uyvy_nf
                0x000000000003ae1c                basic_text_out16_nf
                0x000000000003b4ec                basic_text_out16
 .text          0x000000000003b5c8     0x2124 platform/libpicofe/linux/in_evdev.o
                0x000000000003b5c8                in_evdev_init
 *fill*         0x000000000003d6ec        0x4 
 .text          0x000000000003d6f0     0x11d0 platform/libpicofe/linux/plat.o
                0x000000000003d858                lprintf
                0x000000000003d910                plat_mem_set_exec
                0x000000000003da18                plat_munmap
                0x000000000003db88                plat_mmap
                0x000000000003debc                plat_wait_event
                0x000000000003e17c                plat_sleep_ms
                0x000000000003e220                plat_get_ticks_us
                0x000000000003e2d8                plat_get_ticks_ms
                0x000000000003e3a0                plat_get_root_dir
                0x000000000003e4f0                plat_get_skin_dir
                0x000000000003e5c4                plat_is_dir
                0x000000000003e698                plat_mremap
 .text          0x000000000003e8c0      0x468 platform/libpicofe/sndout.o
                0x000000000003e8c0                sndout_init
 .text          0x000000000003ed28      0x9cc platform/libpicofe/sndout_sdl.o
                0x000000000003ed28                sndout_sdl_exit
                0x000000000003ee10                sndout_sdl_wait
                0x000000000003ef00                sndout_sdl_stop
                0x000000000003efb0                sndout_sdl_start
                0x000000000003f1d8                sndout_sdl_init
                0x000000000003f290                sndout_sdl_write_nb
 .text          0x000000000003f6f4       0x1c platform/libpicofe/arm_linux.o
                0x000000000003f6f4                cache_flush_d_inval_i
 .text          0x000000000003f710      0xb90 platform/common/mp3.o
                0x000000000003f710                mp3_update
                0x000000000003fa54                mp3_find_sync_word
                0x000000000003fce0                mp3_start_play
                0x0000000000040098                mp3_get_bitrate
 .text          0x00000000000402a0      0x100 platform/common/mp3_dummy.o
                0x00000000000402a0                mp3dec_decode
                0x0000000000040320                mp3dec_start
 .text          0x00000000000403a0     0x1bf4 unzip/unzip.o
                0x00000000000403a0                seekcompresszip
                0x00000000000405d8                rewindzip
                0x0000000000040660                suspendzip
                0x0000000000040718                closezip
                0x00000000000407f0                readzip
                0x0000000000040b48                openzip
                0x0000000000041598                readcompresszip
                0x0000000000041940                readuncompresszip
 .text          0x0000000000041f94     0x1bb0 pico/draw_arm.o
                0x0000000000041f94                DrawLayer
                0x00000000000425c4                BackFill
                0x0000000000042630                DrawTilesFromCache
                0x0000000000042a00                DrawSpritesSHi
                0x0000000000043118                DrawAllSprites
                0x000000000004351c                DrawWindow
                0x0000000000043744                vidConvCpyRGB565
                0x00000000000437f4                PicoDoHighPal555
                0x000000000004394c                FinalizeLine555
                0x0000000000043aec                blockcpy
                0x0000000000043b0c                blockcpy_or
 .text          0x0000000000043b44     0x2230 pico/draw2_arm.o
                0x0000000000043b44                BackFillFull
                0x0000000000043bb8                DrawLayerFull
                0x00000000000445b4                DrawTilesFromCacheF
                0x0000000000044e18                DrawWindowFull
                0x000000000004554c                DrawSpriteFull
 *fill*         0x0000000000045d74        0xc 
 .text          0x0000000000045d80      0x25c pico/memory_arm.o
                0x0000000000045d80                PicoRead8_sram
                0x0000000000045dfc                PicoRead8_io
                0x0000000000045e58                PicoRead16_sram
                0x0000000000045ec0                PicoRead16_io
                0x0000000000045f24                PicoWrite8_io
                0x0000000000045f84                PicoWrite16_io
 .text          0x0000000000045fdc      0xe80 pico/sound/ym2612_arm.o
                0x0000000000045fdc                chan_render_loop
 .text          0x0000000000046e5c      0x10c pico/misc_arm.o
                0x0000000000046e5c                memcpy16bswap
                0x0000000000046f2c                memset32
 .text          0x0000000000046f68      0x108 pico/cd/misc_arm.o
                0x0000000000046f68                wram_2M_to_1M
                0x0000000000046fec                wram_1M_to_2M
 .text          0x0000000000047070      0x888 pico/cd/memory_arm.o
                0x0000000000047078                PicoReadM68k8_cell0
                0x0000000000047080                PicoReadM68k8_cell1
                0x000000000004711c                PicoRead8_mcd_io
                0x0000000000047248                PicoReadM68k16_cell0
                0x0000000000047250                PicoReadM68k16_cell1
                0x00000000000472ec                PicoRead16_mcd_io
                0x00000000000473d4                PicoWriteM68k8_cell0
                0x00000000000473dc                PicoWriteM68k8_cell1
                0x0000000000047480                PicoWrite8_mcd_io
                0x0000000000047490                PicoWriteM68k16_cell0
                0x0000000000047498                PicoWriteM68k16_cell1
                0x0000000000047538                PicoWrite16_mcd_io
                0x0000000000047574                PicoReadS68k8_dec0
                0x000000000004757c                PicoReadS68k8_dec1
                0x00000000000475a4                PicoReadS68k8_pr
                0x0000000000047658                PicoReadS68k16_dec0
                0x0000000000047660                PicoReadS68k16_dec1
                0x0000000000047688                PicoReadS68k16_pr
                0x00000000000476b0                PicoWriteS68k8_dec_m2b0
                0x00000000000476b8                PicoWriteS68k8_dec_m0b0
                0x00000000000476c0                PicoWriteS68k8_dec_m2b1
                0x00000000000476c8                PicoWriteS68k8_dec_m0b1
                0x0000000000047700                PicoWriteS68k8_dec_m1b0
                0x0000000000047708                PicoWriteS68k8_dec_m1b1
                0x000000000004774c                PicoWriteS68k8_pr
                0x00000000000477d8                PicoWriteS68k16_dec_m0b0
                0x00000000000477e0                PicoWriteS68k16_dec_m0b1
                0x0000000000047808                PicoWriteS68k16_dec_m1b0
                0x0000000000047810                PicoWriteS68k16_dec_m1b1
                0x000000000004785c                PicoWriteS68k16_dec_m2b0
                0x0000000000047864                PicoWriteS68k16_dec_m2b1
                0x00000000000478b0                PicoWriteS68k16_pr
 *fill*         0x00000000000478f8        0x8 
 .text          0x0000000000047900      0x394 pico/sound/mix_arm.o
                0x0000000000047900                mix_16h_to_32
                0x0000000000047978                mix_16h_to_32_s1
                0x00000000000479f4                mix_16h_to_32_s2
                0x0000000000047a70                mix_32_to_16l_stereo
                0x0000000000047b58                mix_32_to_16_mono
 *fill*         0x0000000000047c94        0x4 
 .text          0x0000000000047c98     0x2c50 pico/pico.o
                0x0000000000047d64                PicoGetInternal
                0x0000000000047ecc                PicoFrameDrawOnly
                0x0000000000047fb4                PicoSyncZ80
                0x00000000000480a8                CheckDMA
                0x0000000000048250                PicoLoopPrepare
                0x0000000000048338                PicoDetectRegion
                0x0000000000048654                PicoReset
                0x00000000000489e8                PicoPower
                0x0000000000048b80                PicoExit
                0x0000000000048c80                PicoInit
                0x0000000000048ee8                PicoFrame
 .text          0x000000000004a8e8     0x488c pico/cart.o
                0x000000000004c678                PicoCartUnload
                0x000000000004c814                PicoCartResize
                0x000000000004c8f0                PicoCartInsert
                0x000000000004d078                Byteswap
                0x000000000004d178                pm_close
                0x000000000004d2f8                pm_open
                0x000000000004db40                pm_read
                0x000000000004e35c                PicoCartLoad
                0x000000000004ed38                pm_seek
 *fill*         0x000000000004f174        0x4 
 .text          0x000000000004f178     0x693c pico/memory.o
                0x000000000004fccc                ym2612_pack_state
                0x000000000004ff94                ym2612_sync_timers
                0x0000000000050b08                PicoRead8_vdp
                0x00000000000513a4                ctl_write_z80reset
                0x000000000005155c                ctl_write_z80busreq
                0x00000000000516c4                io_ports_write
                0x00000000000517e0                io_ports_read
                0x000000000005194c                PicoSetInputDevice
                0x0000000000051d14                m68k_write32
                0x0000000000051e70                m68k_write16
                0x0000000000051f80                m68k_write8
                0x0000000000052098                m68k_read32
                0x00000000000521f0                m68k_read16
                0x0000000000052300                m68k_read8
                0x0000000000052408                m68k_map_unmap
                0x00000000000527d8                cpu68k_map_all_ram
                0x0000000000053178                PicoMemSetup
                0x0000000000054364                ym2612_unpack_state
                0x0000000000054ea8                z80_map_set
                0x000000000005512c                cpu68k_map_set
 *fill*         0x0000000000055ab4        0x4 
 .text          0x0000000000055ab8     0xa1c4 pico/state.o
                0x000000000005da18                PicoTmpStateRestore
                0x000000000005db84                PicoTmpStateSave
                0x000000000005dd00                PicoStateFP
                0x000000000005df88                PicoState
                0x000000000005e370                PicoStateLoadGfx
 *fill*         0x000000000005fc7c        0x4 
 .text          0x000000000005fc80      0xfd4 pico/sek.o
                0x000000000005fc80                SekFinishIdleDet
                0x000000000005fe2c                SekRegisterIdlePatch
                0x000000000005ff98                SekIsIdleCode
                0x0000000000060410                SekIsIdleReady
                0x00000000000604b0                SekInitIdleDet
                0x00000000000605a8                SekUnpackCpu
                0x00000000000606f0                SekPackCpu
                0x000000000006082c                SekSetRealTAS
                0x00000000000608a8                SekStepM68k
                0x0000000000060968                SekReset
                0x0000000000060a30                SekInit
 *fill*         0x0000000000060c54        0x4 
 .text          0x0000000000060c58      0x958 pico/z80if.o
                0x0000000000060c58                z80_debug
                0x0000000000060d08                z80_exit
                0x0000000000060d88                z80_unpack
                0x00000000000610d0                z80_pack
                0x00000000000612a8                z80_reset
                0x00000000000613a0                z80_init
 .text          0x00000000000615b0     0x206c pico/videoport.o
                0x00000000000619c4                PicoVideoRead8HV_L
                0x0000000000061aa8                PicoVideoRead8HV_H
                0x0000000000061b34                PicoVideoRead8CtlL
                0x0000000000061c08                PicoVideoRead8CtlH
                0x0000000000061c9c                PicoVideoRead
                0x00000000000629a8                PicoVideoWrite
                0x00000000000632e0                PicoVideoRead8DataL
                0x000000000006347c                PicoVideoRead8DataH
 *fill*         0x000000000006361c        0x4 
 .text          0x0000000000063620     0x1084 pico/draw2.o
                0x0000000000063d64                PicoDraw2Init
                0x0000000000063df8                PicoFrameFull
 *fill*         0x00000000000646a4        0x4 
 .text          0x00000000000646a8     0x627c pico/draw.o
                0x00000000000670a8                PicoDrawInit
                0x0000000000067160                PicoDrawSetCallbacks
                0x0000000000067274                PicoDrawSetInternalBuf
                0x0000000000067358                PicoDrawSetOutBuf
                0x000000000006740c                PicoDrawSetOutFormat
                0x0000000000067590                PicoDrawUpdateHighPal
                0x00000000000679b8                DrawStripInterlace
                0x0000000000069cf4                PicoFrameStart
                0x0000000000069f70                PicoDrawSync
 *fill*         0x000000000006a924        0x4 
 .text          0x000000000006a928     0x1780 pico/mode4.o
                0x000000000006af4c                PicoDrawSetOutputMode4
                0x000000000006b0f0                PicoDoHighPal555M4
                0x000000000006b5e0                PicoLineMode4
                0x000000000006bee8                PicoFrameStartMode4
 .text          0x000000000006c0a8        0x0 pico/misc.o
 .text          0x000000000006c0a8     0x11e0 pico/eeprom.o
                0x000000000006c5f4                EEPROM_write16
                0x000000000006c778                EEPROM_write8
                0x000000000006c9b4                EEPROM_read
 .text          0x000000000006d288     0x200c pico/patch.o
                0x000000000006d288                PicoPatchApply
                0x000000000006d694                PicoPatchPrepare
                0x000000000006d844                PicoPatchUnload
                0x000000000006d8f0                fusion_rom_decode
                0x000000000006dc04                fusion_ram_decode
                0x000000000006de6c                ar_decode_ms
                0x000000000006e124                genie_decode_ms
                0x000000000006e4e4                decode
                0x000000000006edd4                PicoPatchLoad
 *fill*         0x000000000006f294        0x4 
 .text          0x000000000006f298     0x2c7c pico/debug.o
                0x000000000006f298                PDebugCPUStep
                0x000000000006f370                PDebugZ80Frame
                0x000000000006f7f4                PDebugDumpMem
                0x0000000000070948                PDebugShowSprite
                0x0000000000070d08                PDebugShowPalette
                0x0000000000070f78                PDebugShowSpriteStats
                0x00000000000714e4                PDebugSpriteList
                0x00000000000716ec                PDebug32x
                0x0000000000071a0c                PDebugMain
 *fill*         0x0000000000071f14        0x4 
 .text          0x0000000000071f18     0x147c pico/media.o
                0x0000000000072010                PicoCdCheck
                0x0000000000072634                PicoLoadMedia
 *fill*         0x0000000000073394        0x4 
 .text          0x0000000000073398     0x153c pico/sms.o
                0x0000000000073398                PicoFrameDrawOnlyMS
                0x0000000000073460                PicoFrameMS
                0x0000000000073a2c                PicoMemSetupMS
                0x0000000000073c10                PicoPowerMS
                0x0000000000073d78                PicoResetMS
                0x0000000000074040                PicoStateLoadedMS
 *fill*         0x00000000000748d4        0x4 
 .text          0x00000000000748d8     0x364c pico/cd/mcd.o
                0x0000000000074bec                pcd_state_loaded
                0x0000000000074eb8                pcd_prepare_frame
                0x0000000000074f98                pcd_sync_s68k
                0x0000000000075380                pcd_event_schedule_s68k
                0x00000000000754c8                pcd_event_schedule
                0x0000000000075960                pcd_cycles_m68k_to_s68k
                0x00000000000759fc                PicoResetMCD
                0x0000000000075b14                PicoPowerMCD
                0x0000000000075ca0                PicoExitMCD
                0x0000000000075d20                PicoInitMCD
                0x0000000000076208                pcd_run_cpus
                0x00000000000764d0                pcd_run_cpus_lockstep
                0x00000000000765c8                PicoFrameMCD
                0x0000000000077cec                pcd_soft_reset
 *fill*         0x0000000000077f24        0x4 
 .text          0x0000000000077f28     0x3ccc pico/cd/memory.o
                0x0000000000078bd0                s68k_reg_write8
                0x00000000000793e0                s68k_reg_write16
                0x000000000007984c                s68k_poll_detect
                0x0000000000079a00                s68k_reg_read16
                0x000000000007a0a4                m68k_reg_write8
                0x000000000007a5ec                m68k_comm_check
                0x000000000007a770                s68k_write32
                0x000000000007a8d0                s68k_write16
                0x000000000007a9e8                s68k_write8
                0x000000000007aaf8                s68k_read32
                0x000000000007ac58                s68k_read16
                0x000000000007ad60                s68k_read8
                0x000000000007b234                pcd_state_loaded_mem
                0x000000000007b3fc                PicoMemSetupCD
 *fill*         0x000000000007bbf4        0x4 
 .text          0x000000000007bbf8      0x440 pico/cd/sek.o
                0x000000000007bbf8                SekInterruptClearS68k
                0x000000000007bce0                SekInterruptS68k
                0x000000000007bdc0                SekResetS68k
                0x000000000007be88                SekInitS68k
 .text          0x000000000007c038     0x1a68 pico/cd/cdc.o
                0x000000000007c038                cdc_host_r
                0x000000000007c1f0                cdc_reg_r
                0x000000000007c544                cdc_context_load_old
                0x000000000007c76c                cdc_context_load
                0x000000000007c8f0                cdc_context_save
                0x000000000007ca34                cdc_reset
                0x000000000007cb10                cdc_reg_w
                0x000000000007d12c                cdc_init
                0x000000000007d1c0                cdc_decoder_update
                0x000000000007d3f4                cdc_dma_update
 .text          0x000000000007daa0     0x25c4 pico/cd/cdd.o
                0x000000000007dc10                cdd_process
                0x000000000007eda8                cdd_update
                0x000000000007f1e4                cdd_read_data
                0x000000000007f30c                cdd_unload
                0x000000000007f518                cdd_load
                0x000000000007fc8c                cdd_context_load_old
                0x000000000007fd2c                cdd_context_load
                0x000000000007fec8                cdd_context_save
                0x000000000007ffbc                cdd_reset
 *fill*         0x0000000000080064        0x4 
 .text          0x0000000000080068     0x1240 pico/cd/cd_image.o
                0x0000000000080254                load_cd_image
 .text          0x00000000000812a8     0x2114 pico/cd/cue.o
                0x00000000000812a8                cue_destroy
                0x0000000000081700                cue_parse
 *fill*         0x00000000000833bc        0x4 
 .text          0x00000000000833c0     0x11f0 pico/cd/gfx.o
                0x00000000000833c0                gfx_update
                0x0000000000083a80                gfx_context_load
                0x0000000000083bb0                gfx_context_save
                0x0000000000083ce8                gfx_init
                0x00000000000842c4                gfx_start
 .text          0x00000000000845b0      0x6d8 pico/cd/gfx_dma.o
                0x00000000000846d0                DmaSlowCell
 .text          0x0000000000084c88        0x0 pico/cd/misc.o
 .text          0x0000000000084c88      0xa8c pico/cd/pcm.o
                0x0000000000084c88                pcd_pcm_sync
                0x0000000000085170                pcd_pcm_read
                0x00000000000852a0                pcd_pcm_write
                0x0000000000085458                pcd_pcm_update
 *fill*         0x0000000000085714        0x4 
 .text          0x0000000000085718     0x4f58 pico/32x/32x.o
                0x0000000000085b20                Pico32xSetClocks
                0x0000000000085c64                p32x_sync_sh2s
                0x0000000000086274                sync_sh2s_lockstep
                0x0000000000086364                p32x_sync_other_sh2
                0x0000000000086504                p32x_event_schedule_sh2
                0x0000000000086654                p32x_event_schedule
                0x0000000000086814                p32x_schedule_hint
                0x00000000000869b0                PicoUnload32x
                0x0000000000086ac4                PicoPower32x
                0x0000000000086b6c                Pico32xInit
                0x0000000000086c98                Pico32xStartup
                0x0000000000086e7c                p32x_update_irls
                0x0000000000087158                p32x_update_cmd_irq
                0x00000000000872a0                p32x_trigger_irq
                0x000000000008738c                PicoReset32x
                0x000000000008759c                p32x_reset_sh2s
                0x00000000000879e8                PicoFrame32x
                0x000000000008a380                Pico32xStateLoaded
 .text          0x000000000008a670     0x7ee4 pico/32x/memory.o
                0x000000000008b11c                Pico32xSwapDRAM
                0x000000000008b870                p32x_sh2_write32
                0x000000000008b9dc                p32x_sh2_write16
                0x000000000008bac0                p32x_sh2_write8
                0x000000000008bba8                p32x_sh2_read32
                0x000000000008bd54                p32x_sh2_read16
                0x000000000008be6c                p32x_sh2_read8
                0x000000000008e1bc                PicoRead16_32x
                0x000000000008e2fc                PicoRead8_32x
                0x000000000008e420                p32x_sh2_poll_event
                0x000000000008e500                p32x_m68k_poll_event
                0x000000000008f590                Pico32xMemStateLoaded
                0x0000000000090390                PicoWrite8_32x
                0x0000000000090bf8                PicoWrite16_32x
                0x0000000000090f64                p32x_update_banks
                0x00000000000914cc                PicoMemSetup32x
 *fill*         0x0000000000092554        0x4 
 .text          0x0000000000092558     0x35ac pico/32x/draw.o
                0x0000000000092644                PicoDrawSetOutFormat32x
                0x0000000000092770                PicoDraw32xLayerMdOnly
                0x0000000000092b5c                PicoDraw32xLayer
                0x00000000000954b4                FinalizeLine32xRGB555
 *fill*         0x0000000000095b04        0x4 
 .text          0x0000000000095b08     0x1dcc pico/32x/sh2soc.o
                0x0000000000096340                p32x_dreq0_trigger
                0x0000000000096490                sh2_peripheral_write16
                0x0000000000096648                sh2_peripheral_write8
                0x0000000000096840                sh2_peripheral_read32
                0x00000000000968d8                sh2_peripheral_read16
                0x000000000009697c                sh2_peripheral_read8
                0x0000000000096a18                sh2_peripheral_reset
                0x0000000000096ad8                p32x_timers_do
                0x0000000000096c8c                p32x_timers_recalc
                0x0000000000096db4                p32x_dreq1_trigger
                0x0000000000097538                sh2_peripheral_write32
 *fill*         0x00000000000978d4        0x4 
 .text          0x00000000000978d8     0x17a0 pico/32x/pwm.o
                0x0000000000097c98                p32x_pwm_read16
                0x0000000000097e90                p32x_pwm_sync_to_sh2
                0x0000000000097f84                p32x_pwm_schedule_sh2
                0x00000000000981a8                p32x_pwm_update
                0x000000000009862c                p32x_pwm_ctl_changed
                0x0000000000098748                p32x_pwm_write16
                0x0000000000098a14                p32x_pwm_schedule
                0x0000000000098c00                p32x_pwm_irq_event
                0x0000000000098e6c                p32x_pwm_state_loaded
 .text          0x0000000000099078      0x540 pico/pico/pico.o
                0x0000000000099078                PicoInitPico
                0x00000000000994a4                PicoReratePico
 .text          0x00000000000995b8      0x6ec pico/pico/memory.o
                0x00000000000995b8                PicoMemSetupPico
 *fill*         0x0000000000099ca4        0x4 
 .text          0x0000000000099ca8      0xa4c pico/pico/xpcm.o
                0x0000000000099ca8                PicoPicoPCMUpdate
                0x000000000009a58c                PicoPicoPCMReset
                0x000000000009a634                PicoPicoPCMRerate
 *fill*         0x000000000009a6f4        0x4 
 .text          0x000000000009a6f8     0x3e78 pico/carthw/carthw.o
                0x000000000009a82c                carthw_prot_lk3_startup
                0x000000000009ad38                carthw_sprot_startup
                0x000000000009b0b4                carthw_sprot_new_location
                0x000000000009b9dc                carthw_pier_startup
                0x000000000009c268                carthw_radica_startup
                0x000000000009c504                carthw_realtec_startup
                0x000000000009caa4                carthw_Xin1_startup
                0x000000000009cd58                carthw_ssf2_startup
                0x000000000009d044                carthw_ssf2_write8
                0x000000000009d220                carthw_ssf2_write16
 .text          0x000000000009e570      0x768 pico/carthw/eeprom_spi.o
                0x000000000009e570                eeprom_spi_read
                0x000000000009e5f0                eeprom_spi_write
                0x000000000009ec0c                eeprom_spi_init
 .text          0x000000000009ecd8      0x6f4 pico/carthw/svp/svp.o
                0x000000000009ecd8                PicoSVPStartup
                0x000000000009ef98                PicoSVPInit
 *fill*         0x000000000009f3cc        0x4 
 .text          0x000000000009f3d0      0x89c pico/carthw/svp/memory.o
                0x000000000009f3d0                PicoSVPMemSetup
 *fill*         0x000000000009fc6c        0x4 
 .text          0x000000000009fc70     0x744c pico/carthw/svp/ssp16.o
                0x00000000000a068c                ssp1601_run
                0x00000000000a3950                ssp1601_reset
 .text          0x00000000000a70bc      0x758 pico/carthw/svp/stub_arm.o
                0x00000000000a70bc                ssp_drc_entry
                0x00000000000a7114                ssp_drc_next
                0x00000000000a71ac                ssp_drc_next_patch
                0x00000000000a72b8                ssp_drc_end
                0x00000000000a7310                ssp_hle_800
                0x00000000000a7338                ssp_hle_902
                0x00000000000a73f4                ssp_hle_11_12c
                0x00000000000a74f0                ssp_hle_11_384
                0x00000000000a74f8                ssp_hle_11_38a
                0x00000000000a7590                ssp_hle_07_6d6
                0x00000000000a7610                ssp_hle_07_030
                0x00000000000a7624                ssp_hle_07_036
 *fill*         0x00000000000a7814        0x4 
 .text          0x00000000000a7818     0xba4c pico/carthw/svp/compiler.o
                0x00000000000a8164                ssp1601_dyn_run
                0x00000000000a8224                ssp1601_dyn_reset
                0x00000000000a8314                ssp1601_dyn_startup
                0x00000000000a84cc                ssp1601_dyn_exit
                0x00000000000a9cc8                tr_unhandled
                0x00000000000a9d48                ssp_get_iram_context
                0x00000000000a9e00                ssp_pm_write
                0x00000000000aa278                ssp_pm_read
                0x00000000000aeb90                ssp_translate_block
 *fill*         0x00000000000b3264        0x4 
 .text          0x00000000000b3268     0x2648 pico/sound/sound.o
                0x00000000000b3268                PsndClear
                0x00000000000b33d0                PsndDoPSG
                0x00000000000b3534                PsndDoDAC
                0x00000000000b3854                PsndStartFrame
                0x00000000000b3948                cdda_start_play
                0x00000000000b3ad8                PsndRerate
                0x00000000000b4990                PsndGetSamplesMS
                0x00000000000b4cc8                PsndReset
                0x00000000000b5478                PsndGetSamples
 .text          0x00000000000b58b0      0xdc4 pico/sound/sn76496.o
                0x00000000000b58b0                SN76496_init
                0x00000000000b5b24                SN76496Update
                0x00000000000b63ac                SN76496Write
 *fill*         0x00000000000b6674        0x4 
 .text          0x00000000000b6678     0x7150 pico/sound/ym2612.o
                0x00000000000b6a0c                YM2612GetRegs
                0x00000000000b6a94                YM2612PicoStateLoad2
                0x00000000000b6f4c                YM2612PicoStateSave2
                0x00000000000b7580                YM2612PicoStateLoad_
                0x00000000000b7624                YM2612Write_
                0x00000000000b8844                YM2612ResetChip_
                0x00000000000b9b74                YM2612Init_
                0x00000000000bad10                YM2612UpdateOne_
 .text          0x00000000000bd7c8    0xc5b4c cpu/fame/famec.o
                0x00000000000bd990                fm68k_would_interrupt
                0x00000000000bda38                fm68k_get_pc
                0x00000000000bdac0                fm68k_emulate
                0x0000000000182f70                fm68k_idle_remove
                0x0000000000183010                fm68k_idle_install
                0x00000000001830b0                fm68k_reset
                0x0000000000183254                fm68k_init
 *fill*         0x0000000000183314        0xc 
 .text          0x0000000000183320     0x7540 cpu/DrZ80/drz80.o
                0x000000000018346c                DrZ80Run
 .text          0x000000000018a860      0x2f0 cpu/drc/cmn.o
                0x000000000018a860                drc_cmn_cleanup
                0x000000000018a8e0                drc_cmn_init
 .text          0x000000000018ab50      0x6fc cpu/sh2/sh2.o
                0x000000000018ab50                sh2_unpack
                0x000000000018ac00                sh2_pack
                0x000000000018aca8                sh2_internal_irq
                0x000000000018ad60                sh2_do_irq
                0x000000000018ae8c                sh2_irl_irq
                0x000000000018b014                sh2_reset
                0x000000000018b0e8                sh2_finish
                0x000000000018b180                sh2_init
 *fill*         0x000000000018b24c        0x4 
 .text          0x000000000018b250    0x15d14 cpu/sh2/compiler.o
                0x000000000018c678                scan_block
                0x0000000000190cdc                sh2_drc_frame
                0x0000000000190d8c                sh2_drc_mem_setup
                0x0000000000190e6c                sh2_execute_drc
                0x000000000019123c                sh2_drc_flush_all
                0x0000000000191314                sh2_drc_finish
                0x000000000019542c                sh2_drc_wcheck_ram
                0x00000000001954e0                sh2_drc_wcheck_da
                0x0000000000195be0                sh2_drc_init
 *fill*         0x00000000001a0f64        0x4 
 .text          0x00000000001a0f68     0x7500 cpu/sh2/mame/sh2pico.o
                0x00000000001a5bc8                sh2_execute_interpreter
 .text          0x00000000001a8468       0x34 /opt/miyoo/lib/gcc/arm-miyoo-linux-uclibcgnueabi/7.3.0/libgcov.a(_gcov_merge_add.o)
                0x00000000001a846c                __gcov_merge_add
 .text          0x00000000001a849c       0xe0 /opt/miyoo/lib/gcc/arm-miyoo-linux-uclibcgnueabi/7.3.0/libgcov.a(_gcov_merge_single.o)
                0x00000000001a84a0                __gcov_merge_single
 .text          0x00000000001a857c       0x34 /opt/miyoo/lib/gcc/arm-miyoo-linux-uclibcgnueabi/7.3.0/libgcov.a(_gcov_merge_ior.o)
                0x00000000001a8580                __gcov_merge_ior
 .text          0x00000000001a85b0       0x58 /opt/miyoo/lib/gcc/arm-miyoo-linux-uclibcgnueabi/7.3.0/libgcov.a(_gcov_merge_time_profile.o)
                0x00000000001a85b4                __gcov_merge_time_profile
 .text          0x00000000001a8608       0x64 /opt/miyoo/lib/gcc/arm-miyoo-linux-uclibcgnueabi/7.3.0/libgcov.a(_gcov_interval_profiler.o)
                0x00000000001a8608                __gcov_interval_profiler
 .text          0x00000000001a866c       0x54 /opt/miyoo/lib/gcc/arm-miyoo-linux-uclibcgnueabi/7.3.0/libgcov.a(_gcov_pow2_profiler.o)
                0x00000000001a866c                __gcov_pow2_profiler
 .text          0x00000000001a86c0       0x64 /opt/miyoo/lib/gcc/arm-miyoo-linux-uclibcgnueabi/7.3.0/libgcov.a(_gcov_one_value_profiler.o)
                0x00000000001a8720                __gcov_one_value_profiler
 .text          0x00000000001a8724       0x28 /opt/miyoo/lib/gcc/arm-miyoo-linux-uclibcgnueabi/7.3.0/libgcov.a(_gcov_average_profiler.o)
                0x00000000001a8724                __gcov_average_profiler
 .text          0x00000000001a874c       0x18 /opt/miyoo/lib/gcc/arm-miyoo-linux-uclibcgnueabi/7.3.0/libgcov.a(_gcov_ior_profiler.o)
                0x00000000001a874c                __gcov_ior_profiler
 .text          0x00000000001a8764       0xb0 /opt/miyoo/lib/gcc/arm-miyoo-linux-uclibcgnueabi/7.3.0/libgcov.a(_gcov_indirect_call_profiler_v2.o)
                0x00000000001a87c4                __gcov_indirect_call_profiler_v2
 .text          0x00000000001a8814        0x0 /opt/miyoo/lib/gcc/arm-miyoo-linux-uclibcgnueabi/7.3.0/libgcov.a(_gcov_time_profiler.o)
 .text          0x00000000001a8814     0x1d84 /opt/miyoo/lib/gcc/arm-miyoo-linux-uclibcgnueabi/7.3.0/libgcov.a(_gcov.o)
                0x00000000001a94d4                __gcov_rewrite
                0x00000000001a950c                __gcov_open
                0x00000000001a970c                __gcov_close
                0x00000000001a9774                __gcov_write_unsigned
                0x00000000001a978c                __gcov_write_counter
                0x00000000001a97ac                __gcov_write_tag_length
                0x00000000001a97cc                __gcov_write_summary
                0x00000000001a98dc                __gcov_read_unsigned
                0x00000000001a98fc                __gcov_read_counter
                0x00000000001a9ac4                __gcov_read_summary
                0x00000000001a9ee8                __gcov_seek
                0x00000000001aa10c                __gcov_sort_n_vals
                0x00000000001aa440                __gcov_dump_one
                0x00000000001aa474                __gcov_exit
                0x00000000001aa4d8                __gcov_init
 .text          0x00000000001aa598       0xc8 /opt/miyoo/lib/gcc/arm-miyoo-linux-uclibcgnueabi/7.3.0/libgcc.a(_udivsi3.o)
                0x00000000001aa598                __udivsi3
                0x00000000001aa598                __aeabi_uidiv
                0x00000000001aa640                __aeabi_uidivmod
 .text          0x00000000001aa660       0xfc /opt/miyoo/lib/gcc/arm-miyoo-linux-uclibcgnueabi/7.3.0/libgcc.a(_divsi3.o)
                0x00000000001aa660                __divsi3
                0x00000000001aa660                __aeabi_idiv
                0x00000000001aa73c                __aeabi_idivmod
 .text          0x00000000001aa75c      0x3c0 /opt/miyoo/lib/gcc/arm-miyoo-linux-uclibcgnueabi/7.3.0/libgcc.a(_arm_addsubdf3.o)
                0x00000000001aa75c                __aeabi_drsub
                0x00000000001aa764                __aeabi_dsub
                0x00000000001aa764                __subdf3
                0x00000000001aa768                __adddf3
                0x00000000001aa768                __aeabi_dadd
                0x00000000001aaa14                __aeabi_ui2d
                0x00000000001aaa14                __floatunsidf
                0x00000000001aaa38                __aeabi_i2d
                0x00000000001aaa38                __floatsidf
                0x00000000001aaa60                __extendsfdf2
                0x00000000001aaa60                __aeabi_f2d
                0x00000000001aaaa8                __aeabi_ul2d
                0x00000000001aaaa8                __floatundidf
                0x00000000001aaabc                __floatdidf
                0x00000000001aaabc                __aeabi_l2d
 .text          0x00000000001aab1c      0x470 /opt/miyoo/lib/gcc/arm-miyoo-linux-uclibcgnueabi/7.3.0/libgcc.a(_arm_muldivdf3.o)
                0x00000000001aab1c                __aeabi_dmul
                0x00000000001aab1c                __muldf3
                0x00000000001aad88                __aeabi_ddiv
                0x00000000001aad88                __divdf3
 .text          0x00000000001aaf8c      0x12c /opt/miyoo/lib/gcc/arm-miyoo-linux-uclibcgnueabi/7.3.0/libgcc.a(_arm_cmpdf2.o)
                0x00000000001aaf8c                __gtdf2
                0x00000000001aaf8c                __gedf2
                0x00000000001aaf94                __ltdf2
                0x00000000001aaf94                __ledf2
                0x00000000001aaf9c                __cmpdf2
                0x00000000001aaf9c                __nedf2
                0x00000000001aaf9c                __eqdf2
                0x00000000001ab024                __aeabi_cdrcmple
                0x00000000001ab040                __aeabi_cdcmple
                0x00000000001ab040                __aeabi_cdcmpeq
                0x00000000001ab054                __aeabi_dcmpeq
                0x00000000001ab068                __aeabi_dcmplt
                0x00000000001ab07c                __aeabi_dcmple
                0x00000000001ab090                __aeabi_dcmpge
                0x00000000001ab0a4                __aeabi_dcmpgt
 .text          0x00000000001ab0b8       0x5c /opt/miyoo/lib/gcc/arm-miyoo-linux-uclibcgnueabi/7.3.0/libgcc.a(_arm_fixdfsi.o)
                0x00000000001ab0b8                __aeabi_d2iz
                0x00000000001ab0b8                __fixdfsi
 .text          0x00000000001ab114       0x54 /opt/miyoo/lib/gcc/arm-miyoo-linux-uclibcgnueabi/7.3.0/libgcc.a(_arm_fixunsdfsi.o)
                0x00000000001ab114                __aeabi_d2uiz
                0x00000000001ab114                __fixunsdfsi
 .text          0x00000000001ab168       0xa0 /opt/miyoo/lib/gcc/arm-miyoo-linux-uclibcgnueabi/7.3.0/libgcc.a(_arm_truncdfsf2.o)
                0x00000000001ab168                __aeabi_d2f
                0x00000000001ab168                __truncdfsf2
 .text          0x00000000001ab208      0x250 /opt/miyoo/lib/gcc/arm-miyoo-linux-uclibcgnueabi/7.3.0/libgcc.a(_arm_addsubsf3.o)
                0x00000000001ab208                __aeabi_frsub
                0x00000000001ab210                __aeabi_fsub
                0x00000000001ab210                __subsf3
                0x00000000001ab214                __aeabi_fadd
                0x00000000001ab214                __addsf3
                0x00000000001ab3a4                __aeabi_ui2f
                0x00000000001ab3a4                __floatunsisf
                0x00000000001ab3ac                __floatsisf
                0x00000000001ab3ac                __aeabi_i2f
                0x00000000001ab3cc                __floatundisf
                0x00000000001ab3cc                __aeabi_ul2f
                0x00000000001ab3dc                __floatdisf
                0x00000000001ab3dc                __aeabi_l2f
 .text          0x00000000001ab458      0x2f8 /opt/miyoo/lib/gcc/arm-miyoo-linux-uclibcgnueabi/7.3.0/libgcc.a(_arm_muldivsf3.o)
                0x00000000001ab458                __mulsf3
                0x00000000001ab458                __aeabi_fmul
                0x00000000001ab5f0                __aeabi_fdiv
                0x00000000001ab5f0                __divsf3
 .text          0x00000000001ab750       0x5c /opt/miyoo/lib/gcc/arm-miyoo-linux-uclibcgnueabi/7.3.0/libgcc.a(_arm_fixsfsi.o)
                0x00000000001ab750                __fixsfsi
                0x00000000001ab750                __aeabi_f2iz
 .text          0x00000000001ab7ac       0xd4 /opt/miyoo/lib/gcc/arm-miyoo-linux-uclibcgnueabi/7.3.0/libgcc.a(_aeabi_ldivmod.o)
                0x00000000001ab7ac                __aeabi_ldivmod
 .text          0x00000000001ab880       0x10 /opt/miyoo/lib/gcc/arm-miyoo-linux-uclibcgnueabi/7.3.0/libgcc.a(_dvmd_lnx.o)
                0x00000000001ab880                __aeabi_ldiv0
                0x00000000001ab880                __aeabi_idiv0
 .text          0x00000000001ab890       0x44 /opt/miyoo/lib/gcc/arm-miyoo-linux-uclibcgnueabi/7.3.0/libgcc.a(_popcountsi2.o)
                0x00000000001ab890                __popcountsi2
 .text          0x00000000001ab8d4      0x15c /opt/miyoo/lib/gcc/arm-miyoo-linux-uclibcgnueabi/7.3.0/libgcc.a(_udivmoddi4.o)
                0x00000000001ab8d4                __udivmoddi4
 .text          0x00000000001aba30        0x0 /opt/miyoo/lib/gcc/arm-miyoo-linux-uclibcgnueabi/7.3.0/crtend.o
 .text          0x00000000001aba30        0x0 /opt/miyoo/arm-miyoo-linux-uclibcgnueabi/sysroot/usr/lib/crtn.o
 *(.gnu.warning)
 *(.glue_7t)
 .glue_7t       0x00000000001aba30        0x0 linker stubs
 *(.glue_7)
 .glue_7        0x00000000001aba30        0x0 linker stubs
 *(.vfp11_veneer)
 .vfp11_veneer  0x00000000001aba30        0x0 linker stubs
 *(.v4_bx)
 .v4_bx         0x00000000001aba30        0x0 linker stubs

.fini           0x00000000001aba30       0x10
 *(SORT_NONE(.fini))
 .fini          0x00000000001aba30        0xc /opt/miyoo/arm-miyoo-linux-uclibcgnueabi/sysroot/usr/lib/crti.o
                0x00000000001aba30                _fini
 .fini          0x00000000001aba3c        0x4 /opt/miyoo/arm-miyoo-linux-uclibcgnueabi/sysroot/usr/lib/crtn.o
                [!provide]                        PROVIDE (__etext = .)
                [!provide]                        PROVIDE (_etext = .)
                [!provide]                        PROVIDE (etext = .)

.rodata         0x00000000001aba40     0x96fe
 *(.rodata .rodata.* .gnu.linkonce.r.*)
 .rodata        0x00000000001aba40      0x570 platform/opendingux/inputmap.o
                0x00000000001aba40                in_sdl_key_names
                0x00000000001abf4c                in_sdl_key_map
                0x00000000001abf74                in_sdl_defbinds
 .rodata.str1.4
                0x00000000001abfb0       0x46 platform/opendingux/inputmap.o
                                         0x52 (size before relaxing)
 *fill*         0x00000000001abff6        0x2 
 .rodata.str1.4
                0x00000000001abff8       0x6f platform/linux/emu.o
                                         0x73 (size before relaxing)
 *fill*         0x00000000001ac067        0x1 
 .rodata.str1.4
                0x00000000001ac068       0x27 platform/linux/blit.o
 *fill*         0x00000000001ac08f        0x1 
 .rodata        0x00000000001ac090       0xc0 platform/common/plat_sdl.o
                0x00000000001ac0a8                in_sdl_joy_map
 .rodata.str1.4
                0x00000000001ac150       0x3c platform/common/plat_sdl.o
                                         0x44 (size before relaxing)
 .rodata.str1.4
                0x00000000001ac18c      0x20b platform/libpicofe/plat_sdl.o
 *fill*         0x00000000001ac397        0x1 
 .rodata        0x00000000001ac398      0x548 platform/libpicofe/in_sdl.o
 .rodata.str1.4
                0x00000000001ac8e0      0x2b8 platform/libpicofe/in_sdl.o
                                        0x334 (size before relaxing)
 .rodata.str1.4
                0x00000000001acb98       0x31 platform/libpicofe/plat_dummy.o
 *fill*         0x00000000001acbc9        0x3 
 .rodata.str1.4
                0x00000000001acbcc      0x194 platform/common/main.o
 .rodata        0x00000000001acd60       0x30 platform/common/emu.o
 .rodata.str1.4
                0x00000000001acd90      0x5b0 platform/common/emu.o
                                        0x5d8 (size before relaxing)
 .rodata        0x00000000001ad340      0x4bb platform/common/menu_pico.o
 *fill*         0x00000000001ad7fb        0x1 
 .rodata.str1.4
                0x00000000001ad7fc      0xba8 platform/common/menu_pico.o
                                        0xbdc (size before relaxing)
 .rodata.str1.4
                0x00000000001ae3a4      0x31b platform/common/config_file.o
                                        0x36f (size before relaxing)
 *fill*         0x00000000001ae6bf        0x1 
 .rodata.str1.4
                0x00000000001ae6c0      0x218 platform/libpicofe/input.o
 .rodata.str1.4
                0x00000000001ae8d8      0x35e platform/libpicofe/readpng.o
                                        0x366 (size before relaxing)
 *fill*         0x00000000001aec36        0x2 
 .rodata.str1.4
                0x00000000001aec38       0x2c platform/libpicofe/fonts.o
 .rodata        0x00000000001aec64      0xc3c platform/libpicofe/linux/in_evdev.o
 .rodata.str1.4
                0x00000000001af8a0      0x58b platform/libpicofe/linux/in_evdev.o
                                        0x65b (size before relaxing)
 *fill*         0x00000000001afe2b        0x1 
 .rodata.str1.4
                0x00000000001afe2c      0x16d platform/libpicofe/linux/plat.o
 *fill*         0x00000000001aff99        0x3 
 .rodata.str1.4
                0x00000000001aff9c       0x59 platform/libpicofe/sndout.o
 *fill*         0x00000000001afff5        0x3 
 .rodata.str1.4
                0x00000000001afff8       0x45 platform/libpicofe/sndout_sdl.o
 *fill*         0x00000000001b003d        0x3 
 .rodata.str1.4
                0x00000000001b0040       0x27 platform/common/mp3.o
 *fill*         0x00000000001b0067        0x1 
 .rodata.str1.4
                0x00000000001b0068       0x2d platform/common/mp3_dummy.o
 *fill*         0x00000000001b0095        0x3 
 .rodata.str1.4
                0x00000000001b0098      0x423 unzip/unzip.o
                                        0x427 (size before relaxing)
 *fill*         0x00000000001b04bb        0x1 
 .rodata        0x00000000001b04bc       0x80 pico/pico.o
 .rodata.str1.4
                0x00000000001b053c       0x49 pico/pico.o
 *fill*         0x00000000001b0585        0x3 
 .rodata        0x00000000001b0588     0x12fa pico/cart.o
 *fill*         0x00000000001b1882        0x2 
 .rodata.str1.4
                0x00000000001b1884      0x50d pico/cart.o
                                        0x545 (size before relaxing)
 *fill*         0x00000000001b1d91        0x3 
 .rodata.str1.4
                0x00000000001b1d94       0xa7 pico/memory.o
 *fill*         0x00000000001b1e3b        0x1 
 .rodata        0x00000000001b1e3c       0xf8 pico/state.o
 .rodata.str1.4
                0x00000000001b1f34      0x701 pico/state.o
                                        0x715 (size before relaxing)
 *fill*         0x00000000001b2635        0x3 
 .rodata.str1.4
                0x00000000001b2638       0x50 pico/sek.o
 .rodata.str1.4
                0x00000000001b2688       0xb6 pico/z80if.o
                                         0xba (size before relaxing)
 *fill*         0x00000000001b273e        0x2 
 .rodata.str1.4
                0x00000000001b2740       0x46 pico/videoport.o
 *fill*         0x00000000001b2786        0x2 
 .rodata.str1.4
                0x00000000001b2788       0x1e pico/draw2.o
 *fill*         0x00000000001b27a6        0x2 
 .rodata.str1.4
                0x00000000001b27a8       0x1d pico/draw.o
 *fill*         0x00000000001b27c5        0x3 
 .rodata.str1.4
                0x00000000001b27c8       0x1e pico/mode4.o
 *fill*         0x00000000001b27e6        0x2 
 .rodata        0x00000000001b27e8      0x400 pico/misc.o
                0x00000000001b27e8                hcounts_32
                0x00000000001b29e8                hcounts_40
 .rodata.str1.4
                0x00000000001b2be8       0x1f pico/eeprom.o
 *fill*         0x00000000001b2c07        0x1 
 .rodata.str1.4
                0x00000000001b2c08       0x26 pico/patch.o
                                         0x2a (size before relaxing)
 *fill*         0x00000000001b2c2e        0x2 
 .rodata.str1.4
                0x00000000001b2c30      0x55e pico/debug.o
                                        0x572 (size before relaxing)
 *fill*         0x00000000001b318e        0x2 
 .rodata        0x00000000001b3190        0x6 pico/media.o
 *fill*         0x00000000001b3196        0x2 
 .rodata.str1.4
                0x00000000001b3198      0x15e pico/media.o
                                        0x1a2 (size before relaxing)
 *fill*         0x00000000001b32f6        0x2 
 .rodata.str1.4
                0x00000000001b32f8       0x6c pico/sms.o
 .rodata.str1.4
                0x00000000001b3364       0x1f pico/cd/mcd.o
 *fill*         0x00000000001b3383        0x1 
 .rodata        0x00000000001b3384       0x70 pico/cd/memory.o
 .rodata.str1.4
                0x00000000001b33f4       0x22 pico/cd/memory.o
 *fill*         0x00000000001b3416        0x2 
 .rodata.str1.4
                0x00000000001b3418       0x1f pico/cd/sek.o
 *fill*         0x00000000001b3437        0x1 
 .rodata.str1.4
                0x00000000001b3438       0x1f pico/cd/cdc.o
 *fill*         0x00000000001b3457        0x1 
 .rodata        0x00000000001b3458      0x29c pico/cd/cdd.o
 .rodata.str1.4
                0x00000000001b36f4       0xa3 pico/cd/cdd.o
                                         0xb3 (size before relaxing)
 *fill*         0x00000000001b3797        0x1 
 .rodata        0x00000000001b3798       0x28 pico/cd/cd_image.o
 .rodata.str1.4
                0x00000000001b37c0      0x18e pico/cd/cd_image.o
                                        0x192 (size before relaxing)
 *fill*         0x00000000001b394e        0x2 
 .rodata.str1.4
                0x00000000001b3950      0x213 pico/cd/cue.o
                                        0x233 (size before relaxing)
 *fill*         0x00000000001b3b63        0x1 
 .rodata.str1.4
                0x00000000001b3b64       0x1f pico/cd/gfx.o
 *fill*         0x00000000001b3b83        0x1 
 .rodata.str1.4
                0x00000000001b3b84       0x23 pico/cd/gfx_dma.o
 *fill*         0x00000000001b3ba7        0x1 
 .rodata.str1.4
                0x00000000001b3ba8       0x1f pico/cd/pcm.o
 *fill*         0x00000000001b3bc7        0x1 
 .rodata.str1.4
                0x00000000001b3bc8       0x78 pico/32x/32x.o
 .rodata        0x00000000001b3c40       0xe0 pico/32x/memory.o
 .rodata.str1.4
                0x00000000001b3d20       0xbf pico/32x/memory.o
 *fill*         0x00000000001b3ddf        0x1 
 .rodata        0x00000000001b3de0       0x30 pico/32x/draw.o
 .rodata.str1.4
                0x00000000001b3e10       0x21 pico/32x/draw.o
 *fill*         0x00000000001b3e31        0x3 
 .rodata.str1.4
                0x00000000001b3e34       0x23 pico/32x/sh2soc.o
 *fill*         0x00000000001b3e57        0x1 
 .rodata.str1.4
                0x00000000001b3e58       0x20 pico/32x/pwm.o
 .rodata        0x00000000001b3e78       0x20 pico/pico/pico.o
 .rodata.str1.4
                0x00000000001b3e98       0x3e pico/pico/pico.o
 *fill*         0x00000000001b3ed6        0x2 
 .rodata.str1.4
                0x00000000001b3ed8       0x24 pico/pico/memory.o
 .rodata        0x00000000001b3efc       0x60 pico/pico/xpcm.o
 .rodata.str1.4
                0x00000000001b3f5c       0x22 pico/pico/xpcm.o
 *fill*         0x00000000001b3f7e        0x2 
 .rodata.str1.4
                0x00000000001b3f80      0x1c2 pico/carthw/carthw.o
                                        0x1d2 (size before relaxing)
 *fill*         0x00000000001b4142        0x2 
 .rodata.str1.4
                0x00000000001b4144       0x2a pico/carthw/eeprom_spi.o
 *fill*         0x00000000001b416e        0x2 
 .rodata.str1.4
                0x00000000001b4170       0x5f pico/carthw/svp/svp.o
 *fill*         0x00000000001b41cf        0x1 
 .rodata.str1.4
                0x00000000001b41d0       0x2a pico/carthw/svp/memory.o
 *fill*         0x00000000001b41fa        0x2 
 .rodata        0x00000000001b41fc       0x80 pico/carthw/svp/ssp16.o
 .rodata.str1.4
                0x00000000001b427c       0x29 pico/carthw/svp/ssp16.o
 *fill*         0x00000000001b42a5        0x3 
 .rodata        0x00000000001b42a8       0xe8 pico/carthw/svp/compiler.o
 .rodata.str1.4
                0x00000000001b4390       0x70 pico/carthw/svp/compiler.o
 .rodata.str1.4
                0x00000000001b4400       0x24 pico/sound/sound.o
 .rodata.str1.4
                0x00000000001b4424       0x26 pico/sound/sn76496.o
 *fill*         0x00000000001b444a        0x2 
 .rodata        0x00000000001b444c      0x3e0 pico/sound/ym2612.o
 .rodata.str1.4
                0x00000000001b482c       0x25 pico/sound/ym2612.o
 *fill*         0x00000000001b4851        0x3 
 .rodata        0x00000000001b4854      0x400 cpu/fame/famec.o
 .rodata.str1.4
                0x00000000001b4c54       0x22 cpu/fame/famec.o
 *fill*         0x00000000001b4c76        0x2 
 .rodata.str1.4
                0x00000000001b4c78       0x9f cpu/drc/cmn.o
                                         0xa7 (size before relaxing)
 *fill*         0x00000000001b4d17        0x1 
 .rodata.str1.4
                0x00000000001b4d18       0x1f cpu/sh2/sh2.o
 *fill*         0x00000000001b4d37        0x1 
 .rodata        0x00000000001b4d38       0x84 cpu/sh2/compiler.o
 .rodata.str1.4
                0x00000000001b4dbc       0xd4 cpu/sh2/compiler.o
                                         0xf8 (size before relaxing)
 .rodata.str1.4
                0x00000000001b4e90       0x48 cpu/sh2/mame/sh2pico.o
 .rodata.str1.1
                0x00000000001b4ed8      0x266 /opt/miyoo/lib/gcc/arm-miyoo-linux-uclibcgnueabi/7.3.0/libgcov.a(_gcov.o)

.rodata1
 *(.rodata1)

.ARM.extab      0x00000000001b513e        0x0
 *(.ARM.extab* .gnu.linkonce.armextab.*)
 .ARM.extab     0x00000000001b513e        0x0 /opt/miyoo/lib/gcc/arm-miyoo-linux-uclibcgnueabi/7.3.0/libgcc.a(_udivmoddi4.o)
                [!provide]                        PROVIDE (__exidx_start = .)

.ARM.exidx      0x00000000001b5140        0x8
 *(.ARM.exidx* .gnu.linkonce.armexidx.*)
 .ARM.exidx     0x00000000001b5140        0x8 /opt/miyoo/lib/gcc/arm-miyoo-linux-uclibcgnueabi/7.3.0/libgcc.a(_udivmoddi4.o)
                [!provide]                        PROVIDE (__exidx_end = .)

.eh_frame_hdr
 *(.eh_frame_hdr)
 *(.eh_frame_entry .eh_frame_entry.*)

.eh_frame       0x00000000001b5148        0x4
 *(.eh_frame)
 .eh_frame      0x00000000001b5148        0x0 /opt/miyoo/lib/gcc/arm-miyoo-linux-uclibcgnueabi/7.3.0/crtbegin.o
 .eh_frame      0x00000000001b5148        0x4 /opt/miyoo/lib/gcc/arm-miyoo-linux-uclibcgnueabi/7.3.0/crtend.o
 *(.eh_frame.*)

.gcc_except_table
 *(.gcc_except_table .gcc_except_table.*)

.gnu_extab
 *(.gnu_extab*)

.exception_ranges
 *(.exception_ranges .exception_ranges*)
                0x00000000001c5cd0                . = DATA_SEGMENT_ALIGN (CONSTANT (MAXPAGESIZE), CONSTANT (COMMONPAGESIZE))

.eh_frame
 *(.eh_frame)
 *(.eh_frame.*)

.gnu_extab
 *(.gnu_extab)

.gcc_except_table
 *(.gcc_except_table .gcc_except_table.*)

.exception_ranges
 *(.exception_ranges .exception_ranges*)

.tdata
 *(.tdata .tdata.* .gnu.linkonce.td.*)

.tbss           0x00000000001c5cd0        0x8
 *(.tbss .tbss.* .gnu.linkonce.tb.*)
 .tbss          0x00000000001c5cd0        0x8 /opt/miyoo/lib/gcc/arm-miyoo-linux-uclibcgnueabi/7.3.0/libgcov.a(_gcov_indirect_call_profiler_v2.o)
                0x00000000001c5cd0                __gcov_indirect_call_counters
                0x00000000001c5cd4                __gcov_indirect_call_callee
 *(.tcommon)

.preinit_array  0x00000000001c5cd0        0x0
                [!provide]                        PROVIDE (__preinit_array_start = .)
 *(.preinit_array)
                [!provide]                        PROVIDE (__preinit_array_end = .)

.init_array     0x00000000001c5cd0      0x110
                [!provide]                        PROVIDE (__init_array_start = .)
 *(SORT_BY_INIT_PRIORITY(.init_array.*) SORT_BY_INIT_PRIORITY(.ctors.*))
 .init_array.00100
                0x00000000001c5cd0        0x4 platform/linux/emu.o
 .init_array.00100
                0x00000000001c5cd4        0x4 platform/linux/blit.o
 .init_array.00100
                0x00000000001c5cd8        0x4 platform/common/plat_sdl.o
 .init_array.00100
                0x00000000001c5cdc        0x4 platform/libpicofe/plat_sdl.o
 .init_array.00100
                0x00000000001c5ce0        0x4 platform/libpicofe/in_sdl.o
 .init_array.00100
                0x00000000001c5ce4        0x4 platform/libpicofe/plat_dummy.o
 .init_array.00100
                0x00000000001c5ce8        0x4 platform/common/main.o
 .init_array.00100
                0x00000000001c5cec        0x4 platform/common/emu.o
 .init_array.00100
                0x00000000001c5cf0        0x4 platform/common/menu_pico.o
 .init_array.00100
                0x00000000001c5cf4        0x4 platform/common/config_file.o
 .init_array.00100
                0x00000000001c5cf8        0x4 platform/libpicofe/input.o
 .init_array.00100
                0x00000000001c5cfc        0x4 platform/libpicofe/readpng.o
 .init_array.00100
                0x00000000001c5d00        0x4 platform/libpicofe/fonts.o
 .init_array.00100
                0x00000000001c5d04        0x4 platform/libpicofe/linux/in_evdev.o
 .init_array.00100
                0x00000000001c5d08        0x4 platform/libpicofe/linux/plat.o
 .init_array.00100
                0x00000000001c5d0c        0x4 platform/libpicofe/sndout.o
 .init_array.00100
                0x00000000001c5d10        0x4 platform/libpicofe/sndout_sdl.o
 .init_array.00100
                0x00000000001c5d14        0x4 platform/common/mp3.o
 .init_array.00100
                0x00000000001c5d18        0x4 platform/common/mp3_dummy.o
 .init_array.00100
                0x00000000001c5d1c        0x4 unzip/unzip.o
 .init_array.00100
                0x00000000001c5d20        0x4 pico/pico.o
 .init_array.00100
                0x00000000001c5d24        0x4 pico/cart.o
 .init_array.00100
                0x00000000001c5d28        0x4 pico/memory.o
 .init_array.00100
                0x00000000001c5d2c        0x4 pico/state.o
 .init_array.00100
                0x00000000001c5d30        0x4 pico/sek.o
 .init_array.00100
                0x00000000001c5d34        0x4 pico/z80if.o
 .init_array.00100
                0x00000000001c5d38        0x4 pico/videoport.o
 .init_array.00100
                0x00000000001c5d3c        0x4 pico/draw2.o
 .init_array.00100
                0x00000000001c5d40        0x4 pico/draw.o
 .init_array.00100
                0x00000000001c5d44        0x4 pico/mode4.o
 .init_array.00100
                0x00000000001c5d48        0x4 pico/eeprom.o
 .init_array.00100
                0x00000000001c5d4c        0x4 pico/patch.o
 .init_array.00100
                0x00000000001c5d50        0x4 pico/debug.o
 .init_array.00100
                0x00000000001c5d54        0x4 pico/media.o
 .init_array.00100
                0x00000000001c5d58        0x4 pico/sms.o
 .init_array.00100
                0x00000000001c5d5c        0x4 pico/cd/mcd.o
 .init_array.00100
                0x00000000001c5d60        0x4 pico/cd/memory.o
 .init_array.00100
                0x00000000001c5d64        0x4 pico/cd/sek.o
 .init_array.00100
                0x00000000001c5d68        0x4 pico/cd/cdc.o
 .init_array.00100
                0x00000000001c5d6c        0x4 pico/cd/cdd.o
 .init_array.00100
                0x00000000001c5d70        0x4 pico/cd/cd_image.o
 .init_array.00100
                0x00000000001c5d74        0x4 pico/cd/cue.o
 .init_array.00100
                0x00000000001c5d78        0x4 pico/cd/gfx.o
 .init_array.00100
                0x00000000001c5d7c        0x4 pico/cd/gfx_dma.o
 .init_array.00100
                0x00000000001c5d80        0x4 pico/cd/pcm.o
 .init_array.00100
                0x00000000001c5d84        0x4 pico/32x/32x.o
 .init_array.00100
                0x00000000001c5d88        0x4 pico/32x/memory.o
 .init_array.00100
                0x00000000001c5d8c        0x4 pico/32x/draw.o
 .init_array.00100
                0x00000000001c5d90        0x4 pico/32x/sh2soc.o
 .init_array.00100
                0x00000000001c5d94        0x4 pico/32x/pwm.o
 .init_array.00100
                0x00000000001c5d98        0x4 pico/pico/pico.o
 .init_array.00100
                0x00000000001c5d9c        0x4 pico/pico/memory.o
 .init_array.00100
                0x00000000001c5da0        0x4 pico/pico/xpcm.o
 .init_array.00100
                0x00000000001c5da4        0x4 pico/carthw/carthw.o
 .init_array.00100
                0x00000000001c5da8        0x4 pico/carthw/eeprom_spi.o
 .init_array.00100
                0x00000000001c5dac        0x4 pico/carthw/svp/svp.o
 .init_array.00100
                0x00000000001c5db0        0x4 pico/carthw/svp/memory.o
 .init_array.00100
                0x00000000001c5db4        0x4 pico/carthw/svp/ssp16.o
 .init_array.00100
                0x00000000001c5db8        0x4 pico/carthw/svp/compiler.o
 .init_array.00100
                0x00000000001c5dbc        0x4 pico/sound/sound.o
 .init_array.00100
                0x00000000001c5dc0        0x4 pico/sound/sn76496.o
 .init_array.00100
                0x00000000001c5dc4        0x4 pico/sound/ym2612.o
 .init_array.00100
                0x00000000001c5dc8        0x4 cpu/fame/famec.o
 .init_array.00100
                0x00000000001c5dcc        0x4 cpu/drc/cmn.o
 .init_array.00100
                0x00000000001c5dd0        0x4 cpu/sh2/sh2.o
 .init_array.00100
                0x00000000001c5dd4        0x4 cpu/sh2/compiler.o
 .init_array.00100
                0x00000000001c5dd8        0x4 cpu/sh2/mame/sh2pico.o
 *(.init_array EXCLUDE_FILE(*crtend?.o *crtend.o *crtbegin?.o *crtbegin.o) .ctors)
 .init_array    0x00000000001c5ddc        0x4 /opt/miyoo/lib/gcc/arm-miyoo-linux-uclibcgnueabi/7.3.0/crtbegin.o
                [!provide]                        PROVIDE (__init_array_end = .)

.fini_array     0x00000000001c5de0      0x110
                [!provide]                        PROVIDE (__fini_array_start = .)
 *(SORT_BY_INIT_PRIORITY(.fini_array.*) SORT_BY_INIT_PRIORITY(.dtors.*))
 .fini_array.00100
                0x00000000001c5de0        0x4 platform/linux/emu.o
 .fini_array.00100
                0x00000000001c5de4        0x4 platform/linux/blit.o
 .fini_array.00100
                0x00000000001c5de8        0x4 platform/common/plat_sdl.o
 .fini_array.00100
                0x00000000001c5dec        0x4 platform/libpicofe/plat_sdl.o
 .fini_array.00100
                0x00000000001c5df0        0x4 platform/libpicofe/in_sdl.o
 .fini_array.00100
                0x00000000001c5df4        0x4 platform/libpicofe/plat_dummy.o
 .fini_array.00100
                0x00000000001c5df8        0x4 platform/common/main.o
 .fini_array.00100
                0x00000000001c5dfc        0x4 platform/common/emu.o
 .fini_array.00100
                0x00000000001c5e00        0x4 platform/common/menu_pico.o
 .fini_array.00100
                0x00000000001c5e04        0x4 platform/common/config_file.o
 .fini_array.00100
                0x00000000001c5e08        0x4 platform/libpicofe/input.o
 .fini_array.00100
                0x00000000001c5e0c        0x4 platform/libpicofe/readpng.o
 .fini_array.00100
                0x00000000001c5e10        0x4 platform/libpicofe/fonts.o
 .fini_array.00100
                0x00000000001c5e14        0x4 platform/libpicofe/linux/in_evdev.o
 .fini_array.00100
                0x00000000001c5e18        0x4 platform/libpicofe/linux/plat.o
 .fini_array.00100
                0x00000000001c5e1c        0x4 platform/libpicofe/sndout.o
 .fini_array.00100
                0x00000000001c5e20        0x4 platform/libpicofe/sndout_sdl.o
 .fini_array.00100
                0x00000000001c5e24        0x4 platform/common/mp3.o
 .fini_array.00100
                0x00000000001c5e28        0x4 platform/common/mp3_dummy.o
 .fini_array.00100
                0x00000000001c5e2c        0x4 unzip/unzip.o
 .fini_array.00100
                0x00000000001c5e30        0x4 pico/pico.o
 .fini_array.00100
                0x00000000001c5e34        0x4 pico/cart.o
 .fini_array.00100
                0x00000000001c5e38        0x4 pico/memory.o
 .fini_array.00100
                0x00000000001c5e3c        0x4 pico/state.o
 .fini_array.00100
                0x00000000001c5e40        0x4 pico/sek.o
 .fini_array.00100
                0x00000000001c5e44        0x4 pico/z80if.o
 .fini_array.00100
                0x00000000001c5e48        0x4 pico/videoport.o
 .fini_array.00100
                0x00000000001c5e4c        0x4 pico/draw2.o
 .fini_array.00100
                0x00000000001c5e50        0x4 pico/draw.o
 .fini_array.00100
                0x00000000001c5e54        0x4 pico/mode4.o
 .fini_array.00100
                0x00000000001c5e58        0x4 pico/eeprom.o
 .fini_array.00100
                0x00000000001c5e5c        0x4 pico/patch.o
 .fini_array.00100
                0x00000000001c5e60        0x4 pico/debug.o
 .fini_array.00100
                0x00000000001c5e64        0x4 pico/media.o
 .fini_array.00100
                0x00000000001c5e68        0x4 pico/sms.o
 .fini_array.00100
                0x00000000001c5e6c        0x4 pico/cd/mcd.o
 .fini_array.00100
                0x00000000001c5e70        0x4 pico/cd/memory.o
 .fini_array.00100
                0x00000000001c5e74        0x4 pico/cd/sek.o
 .fini_array.00100
                0x00000000001c5e78        0x4 pico/cd/cdc.o
 .fini_array.00100
                0x00000000001c5e7c        0x4 pico/cd/cdd.o
 .fini_array.00100
                0x00000000001c5e80        0x4 pico/cd/cd_image.o
 .fini_array.00100
                0x00000000001c5e84        0x4 pico/cd/cue.o
 .fini_array.00100
                0x00000000001c5e88        0x4 pico/cd/gfx.o
 .fini_array.00100
                0x00000000001c5e8c        0x4 pico/cd/gfx_dma.o
 .fini_array.00100
                0x00000000001c5e90        0x4 pico/cd/pcm.o
 .fini_array.00100
                0x00000000001c5e94        0x4 pico/32x/32x.o
 .fini_array.00100
                0x00000000001c5e98        0x4 pico/32x/memory.o
 .fini_array.00100
                0x00000000001c5e9c        0x4 pico/32x/draw.o
 .fini_array.00100
                0x00000000001c5ea0        0x4 pico/32x/sh2soc.o
 .fini_array.00100
                0x00000000001c5ea4        0x4 pico/32x/pwm.o
 .fini_array.00100
                0x00000000001c5ea8        0x4 pico/pico/pico.o
 .fini_array.00100
                0x00000000001c5eac        0x4 pico/pico/memory.o
 .fini_array.00100
                0x00000000001c5eb0        0x4 pico/pico/xpcm.o
 .fini_array.00100
                0x00000000001c5eb4        0x4 pico/carthw/carthw.o
 .fini_array.00100
                0x00000000001c5eb8        0x4 pico/carthw/eeprom_spi.o
 .fini_array.00100
                0x00000000001c5ebc        0x4 pico/carthw/svp/svp.o
 .fini_array.00100
                0x00000000001c5ec0        0x4 pico/carthw/svp/memory.o
 .fini_array.00100
                0x00000000001c5ec4        0x4 pico/carthw/svp/ssp16.o
 .fini_array.00100
                0x00000000001c5ec8        0x4 pico/carthw/svp/compiler.o
 .fini_array.00100
                0x00000000001c5ecc        0x4 pico/sound/sound.o
 .fini_array.00100
                0x00000000001c5ed0        0x4 pico/sound/sn76496.o
 .fini_array.00100
                0x00000000001c5ed4        0x4 pico/sound/ym2612.o
 .fini_array.00100
                0x00000000001c5ed8        0x4 cpu/fame/famec.o
 .fini_array.00100
                0x00000000001c5edc        0x4 cpu/drc/cmn.o
 .fini_array.00100
                0x00000000001c5ee0        0x4 cpu/sh2/sh2.o
 .fini_array.00100
                0x00000000001c5ee4        0x4 cpu/sh2/compiler.o
 .fini_array.00100
                0x00000000001c5ee8        0x4 cpu/sh2/mame/sh2pico.o
 *(.fini_array EXCLUDE_FILE(*crtend?.o *crtend.o *crtbegin?.o *crtbegin.o) .dtors)
 .fini_array    0x00000000001c5eec        0x4 /opt/miyoo/lib/gcc/arm-miyoo-linux-uclibcgnueabi/7.3.0/crtbegin.o
                [!provide]                        PROVIDE (__fini_array_end = .)

.ctors
 *crtbegin.o(.ctors)
 *crtbegin?.o(.ctors)
 *(EXCLUDE_FILE(*crtend?.o *crtend.o) .ctors)
 *(SORT_BY_NAME(.ctors.*))
 *(.ctors)

.dtors
 *crtbegin.o(.dtors)
 *crtbegin?.o(.dtors)
 *(EXCLUDE_FILE(*crtend?.o *crtend.o) .dtors)
 *(SORT_BY_NAME(.dtors.*))
 *(.dtors)

.jcr
 *(.jcr)

.data.rel.ro    0x00000000001c5ef0        0x0
 *(.data.rel.ro.local* .gnu.linkonce.d.rel.ro.local.*)
 *(.data.rel.ro .data.rel.ro.* .gnu.linkonce.d.rel.ro.*)
 .data.rel.ro   0x00000000001c5ef0        0x0 /opt/miyoo/arm-miyoo-linux-uclibcgnueabi/sysroot/usr/lib/crt1.o

.dynamic        0x00000000001c5ef0      0x110
 *(.dynamic)
 .dynamic       0x00000000001c5ef0      0x110 /opt/miyoo/arm-miyoo-linux-uclibcgnueabi/sysroot/usr/lib/crt1.o
                0x00000000001c5ef0                _DYNAMIC
                0x00000000001c6000                . = DATA_SEGMENT_RELRO_END (., 0x0)

.got            0x00000000001c6000      0x2ac
 *(.got.plt)
 .got.plt       0x00000000001c6000      0x284 /opt/miyoo/arm-miyoo-linux-uclibcgnueabi/sysroot/usr/lib/crt1.o
                0x00000000001c6000                _GLOBAL_OFFSET_TABLE_
 *(.igot.plt)
 .igot.plt      0x00000000001c6284        0x0 /opt/miyoo/arm-miyoo-linux-uclibcgnueabi/sysroot/usr/lib/crt1.o
 *(.got)
 .got           0x00000000001c6284       0x28 /opt/miyoo/arm-miyoo-linux-uclibcgnueabi/sysroot/usr/lib/crt1.o
 *(.igot)

.data           0x00000000001c62b0    0x119dc
                [!provide]                        PROVIDE (__data_start = .)
 *(.data .data.* .gnu.linkonce.d.*)
 .data          0x00000000001c62b0        0x4 /opt/miyoo/arm-miyoo-linux-uclibcgnueabi/sysroot/usr/lib/crt1.o
                0x00000000001c62b0                __data_start
                0x00000000001c62b0                data_start
 .data          0x00000000001c62b4        0x0 /opt/miyoo/arm-miyoo-linux-uclibcgnueabi/sysroot/usr/lib/crti.o
 .data          0x00000000001c62b4        0x4 /opt/miyoo/lib/gcc/arm-miyoo-linux-uclibcgnueabi/7.3.0/crtbegin.o
                0x00000000001c62b4                __dso_handle
 .data          0x00000000001c62b8        0x0 platform/opendingux/inputmap.o
 .data          0x00000000001c62b8      0x2e4 platform/linux/emu.o
                0x00000000001c62b8                renderer_names
                0x00000000001c658c                renderer_names32x
 .data          0x00000000001c659c      0x114 platform/linux/blit.o
 .data          0x00000000001c66b0      0x210 platform/common/plat_sdl.o
 .data          0x00000000001c68c0      0x11c platform/libpicofe/plat_sdl.o
 .data          0x00000000001c69dc      0x1f4 platform/libpicofe/in_sdl.o
 .data          0x00000000001c6bd0       0xa8 platform/libpicofe/plat_dummy.o
 .data          0x00000000001c6c78       0x88 platform/common/main.o
 .data          0x00000000001c6d00      0x874 platform/common/emu.o
                0x00000000001c6d00                g_screen_height
                0x00000000001c6d04                g_screen_width
                0x00000000001c6d08                g_screen_ppitch
                0x00000000001c6d0c                engineState
                0x00000000001c6d10                pico_pen_y
                0x00000000001c6d14                pico_pen_x
                0x00000000001c6d20                PicoConfigFile
 .data          0x00000000001c7574     0x2494 platform/common/menu_pico.o
                0x00000000001c818c                me_ctrl_actions
                0x00000000001c820c                emuctrl_actions
                0x00000000001c99f8                indev_names
 .data          0x00000000001c9a08      0x24c platform/common/config_file.o
 .data          0x00000000001c9c54      0xa54 platform/libpicofe/input.o
 .data          0x00000000001ca6a8       0x84 platform/libpicofe/readpng.o
 .data          0x00000000001ca72c      0xca8 platform/libpicofe/fonts.o
                0x00000000001ca72c                fontdata8x8
                0x00000000001cabd4                fontdata6x8
 .data          0x00000000001cb3d4      0x24c platform/libpicofe/linux/in_evdev.o
 .data          0x00000000001cb620      0x348 platform/libpicofe/linux/plat.o
 .data          0x00000000001cb968      0x1a8 platform/libpicofe/sndout.o
 .data          0x00000000001cbb10      0x1e0 platform/libpicofe/sndout_sdl.o
 .data          0x00000000001cbcf0        0x0 platform/libpicofe/arm_linux.o
 .data          0x00000000001cbcf0      0x138 platform/common/mp3.o
                0x00000000001cbcf0                mpeg1_l3_bitrates
 .data          0x00000000001cbe28       0x84 platform/common/mp3_dummy.o
 .data          0x00000000001cbeac      0x2d4 unzip/unzip.o
 .data          0x00000000001cc180        0x0 pico/draw_arm.o
 .data          0x00000000001cc180        0x0 pico/draw2_arm.o
 .data          0x00000000001cc180        0x0 pico/memory_arm.o
 .data          0x00000000001cc180        0x0 pico/sound/ym2612_arm.o
 .data          0x00000000001cc180        0x0 pico/misc_arm.o
 .data          0x00000000001cc180        0x0 pico/cd/misc_arm.o
 .data          0x00000000001cc180        0x0 pico/cd/memory_arm.o
 .data          0x00000000001cc180        0x0 pico/sound/mix_arm.o
 .data          0x00000000001cc180      0x2d0 pico/pico.o
 .data          0x00000000001cc450      0x5d0 pico/cart.o
 .data          0x00000000001cca20      0x90c pico/memory.o
 .data          0x00000000001cd32c      0x24c pico/state.o
 .data          0x00000000001cd578      0x210 pico/sek.o
 .data          0x00000000001cd788      0x180 pico/z80if.o
 .data          0x00000000001cd908      0x4c0 pico/videoport.o
 .data          0x00000000001cddc8       0xf0 pico/draw2.o
                0x00000000001cdeb4                PicoCramHigh
 .data          0x00000000001cdeb8      0x56c pico/draw.o
                0x00000000001cdebc                DrawLineDestBase
 .data          0x00000000001ce424      0x220 pico/mode4.o
 .data          0x00000000001ce644        0x0 pico/misc.o
 .data          0x00000000001ce644       0xd0 pico/eeprom.o
 .data          0x00000000001ce714      0x230 pico/patch.o
 .data          0x00000000001ce944      0x180 pico/debug.o
 .data          0x00000000001ceac4       0xec pico/media.o
 .data          0x00000000001cebb0      0x1ec pico/sms.o
 .data          0x00000000001ced9c      0x430 pico/cd/mcd.o
 .data          0x00000000001cf1cc      0x564 pico/cd/memory.o
 .data          0x00000000001cf730       0xf0 pico/cd/sek.o
 .data          0x00000000001cf820      0x2d0 pico/cd/cdc.o
 .data          0x00000000001cfaf0      0x1f4 pico/cd/cdd.o
 .data          0x00000000001cfce4      0x108 pico/cd/cd_image.o
 .data          0x00000000001cfdec      0x1e0 pico/cd/cue.o
 .data          0x00000000001cffcc      0x170 pico/cd/gfx.o
 .data          0x00000000001d013c       0x84 pico/cd/gfx_dma.o
 .data          0x00000000001d01c0       0x40 pico/cd/misc.o
                0x00000000001d01c0                formatted_bram
 .data          0x00000000001d0200      0x12c pico/cd/pcm.o
 .data          0x00000000001d032c      0x7f0 pico/32x/32x.o
 .data          0x00000000001d0b1c      0xd4c pico/32x/memory.o
 .data          0x00000000001d1868      0x328 pico/32x/draw.o
 .data          0x00000000001d1b90      0x328 pico/32x/sh2soc.o
 .data          0x00000000001d1eb8      0x24c pico/32x/pwm.o
 .data          0x00000000001d2104       0xd0 pico/pico/pico.o
 .data          0x00000000001d21d4       0xf0 pico/pico/memory.o
 .data          0x00000000001d22c4       0xc4 pico/pico/xpcm.o
 .data          0x00000000001d2388      0x68c pico/carthw/carthw.o
 .data          0x00000000001d2a14       0xa8 pico/carthw/eeprom_spi.o
 .data          0x00000000001d2abc      0x144 pico/carthw/svp/svp.o
 .data          0x00000000001d2c00      0x138 pico/carthw/svp/memory.o
 .data          0x00000000001d2d38      0x50c pico/carthw/svp/ssp16.o
 .data          0x00000000001d3244        0x0 pico/carthw/svp/stub_arm.o
 .data          0x00000000001d3244      0xb10 pico/carthw/svp/compiler.o
 .data          0x00000000001d3d54      0x370 pico/sound/sound.o
                0x00000000001d3d54                PsndMix_32_to_16l
 .data          0x00000000001d40c4       0xa8 pico/sound/sn76496.o
 .data          0x00000000001d416c      0x2c4 pico/sound/ym2612.o
 .data          0x00000000001d4430      0x2a0 cpu/fame/famec.o
 .data          0x00000000001d46d0     0x1b10 cpu/DrZ80/drz80.o
                0x00000000001d46d0                DrZ80Ver
 .data          0x00000000001d61e0       0x94 cpu/drc/cmn.o
 .data          0x00000000001d6274      0x19c cpu/sh2/sh2.o
 .data          0x00000000001d6410      0xc04 cpu/sh2/compiler.o
 .data          0x00000000001d7014      0xc70 cpu/sh2/mame/sh2pico.o
 .data          0x00000000001d7c84        0x0 /opt/miyoo/lib/gcc/arm-miyoo-linux-uclibcgnueabi/7.3.0/libgcov.a(_gcov_merge_add.o)
 .data          0x00000000001d7c84        0x0 /opt/miyoo/lib/gcc/arm-miyoo-linux-uclibcgnueabi/7.3.0/libgcov.a(_gcov_merge_single.o)
 .data          0x00000000001d7c84        0x0 /opt/miyoo/lib/gcc/arm-miyoo-linux-uclibcgnueabi/7.3.0/libgcov.a(_gcov_merge_ior.o)
 .data          0x00000000001d7c84        0x0 /opt/miyoo/lib/gcc/arm-miyoo-linux-uclibcgnueabi/7.3.0/libgcov.a(_gcov_merge_time_profile.o)
 .data          0x00000000001d7c84        0x0 /opt/miyoo/lib/gcc/arm-miyoo-linux-uclibcgnueabi/7.3.0/libgcov.a(_gcov_interval_profiler.o)
 .data          0x00000000001d7c84        0x0 /opt/miyoo/lib/gcc/arm-miyoo-linux-uclibcgnueabi/7.3.0/libgcov.a(_gcov_pow2_profiler.o)
 .data          0x00000000001d7c84        0x0 /opt/miyoo/lib/gcc/arm-miyoo-linux-uclibcgnueabi/7.3.0/libgcov.a(_gcov_one_value_profiler.o)
 .data          0x00000000001d7c84        0x0 /opt/miyoo/lib/gcc/arm-miyoo-linux-uclibcgnueabi/7.3.0/libgcov.a(_gcov_average_profiler.o)
 .data          0x00000000001d7c84        0x0 /opt/miyoo/lib/gcc/arm-miyoo-linux-uclibcgnueabi/7.3.0/libgcov.a(_gcov_ior_profiler.o)
 .data          0x00000000001d7c84        0x0 /opt/miyoo/lib/gcc/arm-miyoo-linux-uclibcgnueabi/7.3.0/libgcov.a(_gcov_indirect_call_profiler_v2.o)
 .data          0x00000000001d7c84        0x0 /opt/miyoo/lib/gcc/arm-miyoo-linux-uclibcgnueabi/7.3.0/libgcov.a(_gcov_time_profiler.o)
 .data          0x00000000001d7c84        0x8 /opt/miyoo/lib/gcc/arm-miyoo-linux-uclibcgnueabi/7.3.0/libgcov.a(_gcov.o)
                0x00000000001d7c84                __gcov_master
 .data          0x00000000001d7c8c        0x0 /opt/miyoo/lib/gcc/arm-miyoo-linux-uclibcgnueabi/7.3.0/libgcc.a(_udivsi3.o)
 .data          0x00000000001d7c8c        0x0 /opt/miyoo/lib/gcc/arm-miyoo-linux-uclibcgnueabi/7.3.0/libgcc.a(_divsi3.o)
 .data          0x00000000001d7c8c        0x0 /opt/miyoo/lib/gcc/arm-miyoo-linux-uclibcgnueabi/7.3.0/libgcc.a(_arm_addsubdf3.o)
 .data          0x00000000001d7c8c        0x0 /opt/miyoo/lib/gcc/arm-miyoo-linux-uclibcgnueabi/7.3.0/libgcc.a(_arm_muldivdf3.o)
 .data          0x00000000001d7c8c        0x0 /opt/miyoo/lib/gcc/arm-miyoo-linux-uclibcgnueabi/7.3.0/libgcc.a(_arm_cmpdf2.o)
 .data          0x00000000001d7c8c        0x0 /opt/miyoo/lib/gcc/arm-miyoo-linux-uclibcgnueabi/7.3.0/libgcc.a(_arm_fixdfsi.o)
 .data          0x00000000001d7c8c        0x0 /opt/miyoo/lib/gcc/arm-miyoo-linux-uclibcgnueabi/7.3.0/libgcc.a(_arm_fixunsdfsi.o)
 .data          0x00000000001d7c8c        0x0 /opt/miyoo/lib/gcc/arm-miyoo-linux-uclibcgnueabi/7.3.0/libgcc.a(_arm_truncdfsf2.o)
 .data          0x00000000001d7c8c        0x0 /opt/miyoo/lib/gcc/arm-miyoo-linux-uclibcgnueabi/7.3.0/libgcc.a(_arm_addsubsf3.o)
 .data          0x00000000001d7c8c        0x0 /opt/miyoo/lib/gcc/arm-miyoo-linux-uclibcgnueabi/7.3.0/libgcc.a(_arm_muldivsf3.o)
 .data          0x00000000001d7c8c        0x0 /opt/miyoo/lib/gcc/arm-miyoo-linux-uclibcgnueabi/7.3.0/libgcc.a(_arm_fixsfsi.o)
 .data          0x00000000001d7c8c        0x0 /opt/miyoo/lib/gcc/arm-miyoo-linux-uclibcgnueabi/7.3.0/libgcc.a(_aeabi_ldivmod.o)
 .data          0x00000000001d7c8c        0x0 /opt/miyoo/lib/gcc/arm-miyoo-linux-uclibcgnueabi/7.3.0/libgcc.a(_dvmd_lnx.o)
 .data          0x00000000001d7c8c        0x0 /opt/miyoo/lib/gcc/arm-miyoo-linux-uclibcgnueabi/7.3.0/libgcc.a(_popcountsi2.o)
 .data          0x00000000001d7c8c        0x0 /opt/miyoo/lib/gcc/arm-miyoo-linux-uclibcgnueabi/7.3.0/libgcc.a(_udivmoddi4.o)
 .data          0x00000000001d7c8c        0x0 /opt/miyoo/lib/gcc/arm-miyoo-linux-uclibcgnueabi/7.3.0/crtend.o
 .data          0x00000000001d7c8c        0x0 /opt/miyoo/arm-miyoo-linux-uclibcgnueabi/sysroot/usr/lib/crtn.o

.tm_clone_table
                0x00000000001d7c8c        0x0
 .tm_clone_table
                0x00000000001d7c8c        0x0 /opt/miyoo/lib/gcc/arm-miyoo-linux-uclibcgnueabi/7.3.0/crtbegin.o
 .tm_clone_table
                0x00000000001d7c8c        0x0 /opt/miyoo/lib/gcc/arm-miyoo-linux-uclibcgnueabi/7.3.0/crtend.o

.data1
 *(.data1)
                0x00000000001d7c8c                _edata = .
                [!provide]                        PROVIDE (edata = .)
                0x00000000001d7c8c                . = .
                0x00000000001d7c8c                __bss_start = .
                0x00000000001d7c8c                __bss_start__ = .

.bss            0x00000000001d8000   0x33b038
 *(.dynbss)
 .dynbss        0x00000000001d8000        0x8 /opt/miyoo/arm-miyoo-linux-uclibcgnueabi/sysroot/usr/lib/crt1.o
                0x00000000001d8000                stderr
                0x00000000001d8004                stdout
 *(.bss .bss.* .gnu.linkonce.b.*)
 .bss           0x00000000001d8008        0x0 /opt/miyoo/arm-miyoo-linux-uclibcgnueabi/sysroot/usr/lib/crt1.o
 .bss           0x00000000001d8008        0x0 /opt/miyoo/arm-miyoo-linux-uclibcgnueabi/sysroot/usr/lib/crti.o
 .bss           0x00000000001d8008       0x1c /opt/miyoo/lib/gcc/arm-miyoo-linux-uclibcgnueabi/7.3.0/crtbegin.o
 .bss           0x00000000001d8024        0x0 platform/opendingux/inputmap.o
 *fill*         0x00000000001d8024        0x4 
 .bss           0x00000000001d8028      0x2c0 platform/linux/emu.o
 .bss           0x00000000001d82e8       0xa0 platform/linux/blit.o
 .bss           0x00000000001d8388      0x478 platform/common/plat_sdl.o
 .bss           0x00000000001d8800      0x3e0 platform/libpicofe/plat_sdl.o
 .bss           0x00000000001d8be0      0x338 platform/libpicofe/in_sdl.o
 .bss           0x00000000001d8f18       0x30 platform/libpicofe/plat_dummy.o
 .bss           0x00000000001d8f48      0x1a8 platform/common/main.o
 .bss           0x00000000001d90f0     0x2518 platform/common/emu.o
                0x00000000001da118                reset_timing
                0x00000000001da960                state_slot
                0x00000000001dab30                movie_data
                0x00000000001dafc8                config_slot
                0x00000000001db0f8                config_slot_current
 .bss           0x00000000001db608     0x2274 platform/common/menu_pico.o
                0x00000000001db7b8                menu_error_msg
 *fill*         0x00000000001dd87c        0x4 
 .bss           0x00000000001dd880      0x808 platform/common/config_file.o
 .bss           0x00000000001de088      0xdc0 platform/libpicofe/input.o
 .bss           0x00000000001dee48      0x320 platform/libpicofe/readpng.o
 .bss           0x00000000001df168      0x128 platform/libpicofe/fonts.o
 .bss           0x00000000001df290      0x528 platform/libpicofe/linux/in_evdev.o
 .bss           0x00000000001df7b8      0x2f8 platform/libpicofe/linux/plat.o
 .bss           0x00000000001dfab0       0xa8 platform/libpicofe/sndout.o
 .bss           0x00000000001dfb58    0x10248 platform/libpicofe/sndout_sdl.o
 .bss           0x00000000001efda0        0x0 platform/libpicofe/arm_linux.o
 .bss           0x00000000001efda0      0x228 platform/common/mp3.o
 .bss           0x00000000001effc8       0x20 platform/common/mp3_dummy.o
 .bss           0x00000000001effe8      0x470 unzip/unzip.o
 .bss           0x00000000001f0458        0x0 pico/draw_arm.o
 .bss           0x00000000001f0458        0x0 pico/draw2_arm.o
 .bss           0x00000000001f0458        0x0 pico/memory_arm.o
 .bss           0x00000000001f0458        0x0 pico/sound/ym2612_arm.o
 .bss           0x00000000001f0458        0x0 pico/misc_arm.o
 .bss           0x00000000001f0458        0x0 pico/cd/misc_arm.o
 .bss           0x00000000001f0458        0x0 pico/cd/memory_arm.o
 .bss           0x00000000001f0458        0x0 pico/sound/mix_arm.o
 .bss           0x00000000001f0458      0x780 pico/pico.o
                0x00000000001f06d0                PicoResetHook
                0x00000000001f0b70                PicoLineHook
 .bss           0x00000000001f0bd8      0xe24 pico/cart.o
                0x00000000001f1898                PicoCartLoadProgressCB
                0x00000000001f19f8                PicoCDLoadProgressCB
 *fill*         0x00000000001f19fc        0x4 
 .bss           0x00000000001f1a00      0xca0 pico/memory.o
 .bss           0x00000000001f26a0     0x2aa0 pico/state.o
 .bss           0x00000000001f5140      0x288 pico/sek.o
 .bss           0x00000000001f53c8       0xe0 pico/z80if.o
 .bss           0x00000000001f54a8      0x508 pico/videoport.o
                0x00000000001f5740                PicoDmaHook
 .bss           0x00000000001f59b0    0x16fb8 pico/draw2.o
                0x00000000001f5aa0                PicoPrepareCram
 .bss           0x000000000020c968     0x1750 pico/draw.o
                0x000000000020d7b0                PicoScanBegin
                0x000000000020d7b4                PicoScanEnd
 .bss           0x000000000020e0b8      0x338 pico/mode4.o
 .bss           0x000000000020e3f0        0x0 pico/misc.o
 .bss           0x000000000020e3f0      0x1d0 pico/eeprom.o
 .bss           0x000000000020e5c0      0x3f0 pico/patch.o
                0x000000000020e5c8                PicoPatchCount
                0x000000000020e668                PicoPatches
 .bss           0x000000000020e9b0     0x2668 pico/debug.o
 .bss           0x0000000000211018      0x420 pico/media.o
 .bss           0x0000000000211438      0x310 pico/sms.o
 .bss           0x0000000000211748      0x810 pico/cd/mcd.o
 .bss           0x0000000000211f58      0x940 pico/cd/memory.o
 .bss           0x0000000000212898       0x80 pico/cd/sek.o
 .bss           0x0000000000212918     0x4d98 pico/cd/cdc.o
 .bss           0x00000000002176b0      0x468 pico/cd/cdd.o
 .bss           0x0000000000217b18      0x2d8 pico/cd/cd_image.o
 .bss           0x0000000000217df0      0x428 pico/cd/cue.o
 .bss           0x0000000000218218      0x8c8 pico/cd/gfx.o
 .bss           0x0000000000218ae0       0x80 pico/cd/gfx_dma.o
 .bss           0x0000000000218b60        0x0 pico/cd/misc.o
 .bss           0x0000000000218b60      0x158 pico/cd/pcm.o
 .bss           0x0000000000218cb8      0xc68 pico/32x/32x.o
 .bss           0x0000000000219920     0x1ee0 pico/32x/memory.o
 .bss           0x000000000021b800      0x608 pico/32x/draw.o
 .bss           0x000000000021be08      0x4a0 pico/32x/sh2soc.o
 .bss           0x000000000021c2a8      0x350 pico/32x/pwm.o
 .bss           0x000000000021c5f8       0xc8 pico/pico/pico.o
 .bss           0x000000000021c6c0      0x120 pico/pico/memory.o
 .bss           0x000000000021c7e0       0xf0 pico/pico/xpcm.o
 .bss           0x000000000021c8d0      0x7d8 pico/carthw/carthw.o
 .bss           0x000000000021d0a8      0x150 pico/carthw/eeprom_spi.o
 .bss           0x000000000021d1f8      0x120 pico/carthw/svp/svp.o
                0x000000000021d240                svp
 .bss           0x000000000021d318      0x138 pico/carthw/svp/memory.o
 .bss           0x000000000021d450      0xd10 pico/carthw/svp/ssp16.o
                0x000000000021d500                ssp
 .bss           0x000000000021e160        0x0 pico/carthw/svp/stub_arm.o
 .bss           0x000000000021e160     0x133c pico/carthw/svp/compiler.o
 *fill*         0x000000000021f49c        0x4 
 .bss           0x000000000021f4a0     0x2310 pico/sound/sound.o
 .bss           0x00000000002217b0      0x210 pico/sound/sn76496.o
 .bss           0x00000000002219c0    0x24828 pico/sound/ym2612.o
 .bss           0x00000000002461e8    0x643a8 cpu/fame/famec.o
 .bss           0x00000000002aa590        0x0 cpu/DrZ80/drz80.o
 .bss           0x00000000002aa590       0x98 cpu/drc/cmn.o
 .bss           0x00000000002aa628      0x100 cpu/sh2/sh2.o
 .bss           0x00000000002aa728     0x2d60 cpu/sh2/compiler.o
 .bss           0x00000000002ad488     0x1480 cpu/sh2/mame/sh2pico.o
 .bss           0x00000000002ae908        0x0 /opt/miyoo/lib/gcc/arm-miyoo-linux-uclibcgnueabi/7.3.0/libgcov.a(_gcov_merge_add.o)
 .bss           0x00000000002ae908        0x0 /opt/miyoo/lib/gcc/arm-miyoo-linux-uclibcgnueabi/7.3.0/libgcov.a(_gcov_merge_single.o)
 .bss           0x00000000002ae908        0x0 /opt/miyoo/lib/gcc/arm-miyoo-linux-uclibcgnueabi/7.3.0/libgcov.a(_gcov_merge_ior.o)
 .bss           0x00000000002ae908        0x0 /opt/miyoo/lib/gcc/arm-miyoo-linux-uclibcgnueabi/7.3.0/libgcov.a(_gcov_merge_time_profile.o)
 .bss           0x00000000002ae908        0x0 /opt/miyoo/lib/gcc/arm-miyoo-linux-uclibcgnueabi/7.3.0/libgcov.a(_gcov_interval_profiler.o)
 .bss           0x00000000002ae908        0x0 /opt/miyoo/lib/gcc/arm-miyoo-linux-uclibcgnueabi/7.3.0/libgcov.a(_gcov_pow2_profiler.o)
 .bss           0x00000000002ae908        0x0 /opt/miyoo/lib/gcc/arm-miyoo-linux-uclibcgnueabi/7.3.0/libgcov.a(_gcov_one_value_profiler.o)
 .bss           0x00000000002ae908        0x0 /opt/miyoo/lib/gcc/arm-miyoo-linux-uclibcgnueabi/7.3.0/libgcov.a(_gcov_average_profiler.o)
 .bss           0x00000000002ae908        0x0 /opt/miyoo/lib/gcc/arm-miyoo-linux-uclibcgnueabi/7.3.0/libgcov.a(_gcov_ior_profiler.o)
 .bss           0x00000000002ae908        0x0 /opt/miyoo/lib/gcc/arm-miyoo-linux-uclibcgnueabi/7.3.0/libgcov.a(_gcov_indirect_call_profiler_v2.o)
 .bss           0x00000000002ae908        0x0 /opt/miyoo/lib/gcc/arm-miyoo-linux-uclibcgnueabi/7.3.0/libgcov.a(_gcov_time_profiler.o)
 .bss           0x00000000002ae908        0xc /opt/miyoo/lib/gcc/arm-miyoo-linux-uclibcgnueabi/7.3.0/libgcov.a(_gcov.o)
                0x00000000002ae910                __gcov_error_file
 .bss           0x00000000002ae914        0x0 /opt/miyoo/lib/gcc/arm-miyoo-linux-uclibcgnueabi/7.3.0/libgcc.a(_udivsi3.o)
 .bss           0x00000000002ae914        0x0 /opt/miyoo/lib/gcc/arm-miyoo-linux-uclibcgnueabi/7.3.0/libgcc.a(_divsi3.o)
 .bss           0x00000000002ae914        0x0 /opt/miyoo/lib/gcc/arm-miyoo-linux-uclibcgnueabi/7.3.0/libgcc.a(_arm_addsubdf3.o)
 .bss           0x00000000002ae914        0x0 /opt/miyoo/lib/gcc/arm-miyoo-linux-uclibcgnueabi/7.3.0/libgcc.a(_arm_muldivdf3.o)
 .bss           0x00000000002ae914        0x0 /opt/miyoo/lib/gcc/arm-miyoo-linux-uclibcgnueabi/7.3.0/libgcc.a(_arm_cmpdf2.o)
 .bss           0x00000000002ae914        0x0 /opt/miyoo/lib/gcc/arm-miyoo-linux-uclibcgnueabi/7.3.0/libgcc.a(_arm_fixdfsi.o)
 .bss           0x00000000002ae914        0x0 /opt/miyoo/lib/gcc/arm-miyoo-linux-uclibcgnueabi/7.3.0/libgcc.a(_arm_fixunsdfsi.o)
 .bss           0x00000000002ae914        0x0 /opt/miyoo/lib/gcc/arm-miyoo-linux-uclibcgnueabi/7.3.0/libgcc.a(_arm_truncdfsf2.o)
 .bss           0x00000000002ae914        0x0 /opt/miyoo/lib/gcc/arm-miyoo-linux-uclibcgnueabi/7.3.0/libgcc.a(_arm_addsubsf3.o)
 .bss           0x00000000002ae914        0x0 /opt/miyoo/lib/gcc/arm-miyoo-linux-uclibcgnueabi/7.3.0/libgcc.a(_arm_muldivsf3.o)
 .bss           0x00000000002ae914        0x0 /opt/miyoo/lib/gcc/arm-miyoo-linux-uclibcgnueabi/7.3.0/libgcc.a(_arm_fixsfsi.o)
 .bss           0x00000000002ae914        0x0 /opt/miyoo/lib/gcc/arm-miyoo-linux-uclibcgnueabi/7.3.0/libgcc.a(_aeabi_ldivmod.o)
 .bss           0x00000000002ae914        0x0 /opt/miyoo/lib/gcc/arm-miyoo-linux-uclibcgnueabi/7.3.0/libgcc.a(_dvmd_lnx.o)
 .bss           0x00000000002ae914        0x0 /opt/miyoo/lib/gcc/arm-miyoo-linux-uclibcgnueabi/7.3.0/libgcc.a(_popcountsi2.o)
 .bss           0x00000000002ae914        0x0 /opt/miyoo/lib/gcc/arm-miyoo-linux-uclibcgnueabi/7.3.0/libgcc.a(_udivmoddi4.o)
 .bss           0x00000000002ae914        0x0 /opt/miyoo/lib/gcc/arm-miyoo-linux-uclibcgnueabi/7.3.0/crtend.o
 .bss           0x00000000002ae914        0x0 /opt/miyoo/arm-miyoo-linux-uclibcgnueabi/sysroot/usr/lib/crtn.o
 *(COMMON)
 COMMON         0x00000000002ae914       0x14 platform/libpicofe/plat_sdl.o
                0x00000000002ae914                plat_sdl_screen
                0x00000000002ae918                plat_sdl_quit_cb
                0x00000000002ae91c                plat_sdl_gl_active
                0x00000000002ae920                plat_sdl_overlay
                0x00000000002ae924                plat_sdl_resize_cb
 COMMON         0x00000000002ae928       0x34 platform/libpicofe/plat_dummy.o
                0x00000000002ae928                plat_target
 COMMON         0x00000000002ae95c        0x4 platform/common/main.o
                0x00000000002ae95c                g_argv
 COMMON         0x00000000002ae960      0x2f0 platform/common/emu.o
                0x00000000002ae960                rom_fname_loaded
                0x00000000002aeb60                g_screen_ptr
                0x00000000002aeb64                flip_after_sync
                0x00000000002aeb68                currentConfig
                0x00000000002aebd8                rom_fname_reload
                0x00000000002aebdc                pico_inp_mode
                0x00000000002aebe0                defaultConfig
 COMMON         0x00000000002aec50       0x1c platform/common/menu_pico.o
                0x00000000002aec50                g_autostateld_opt
                0x00000000002aec54                g_menuscreen_w
                0x00000000002aec58                g_menubg_ptr
                0x00000000002aec5c                g_menuscreen_ptr
                0x00000000002aec60                g_menuscreen_h
                0x00000000002aec64                g_menuscreen_pp
                0x00000000002aec68                g_menubg_src_ptr
 COMMON         0x00000000002aec6c        0x4 platform/libpicofe/linux/in_evdev.o
                0x00000000002aec6c                in_evdev_allow_abs_only
 COMMON         0x00000000002aec70       0x1c platform/libpicofe/sndout.o
                0x00000000002aec70                sndout_current
 COMMON         0x00000000002aec8c    0x224f4 pico/pico.o
                0x00000000002aec8c                PicoIn
                0x00000000002aecbc                PicoMem
                0x00000000002d0e3c                Pico
 COMMON         0x00000000002d1180        0xc pico/cart.o
                0x00000000002d1180                PicoGameLoaded
                0x00000000002d1184                PicoCartMemSetup
                0x00000000002d1188                PicoCartUnloadHook
 COMMON         0x00000000002d118c     0x1000 pico/memory.o
                0x00000000002d118c                m68k_write16_map
                0x00000000002d158c                m68k_read16_map
                0x00000000002d198c                m68k_write8_map
                0x00000000002d1d8c                m68k_read8_map
 COMMON         0x00000000002d218c        0xc pico/state.o
                0x00000000002d218c                PicoStateProgressCB
                0x00000000002d2190                carthw_chunks
                0x00000000002d2194                PicoLoadStateHook
 COMMON         0x00000000002d2198      0x4ac pico/sek.o
                0x00000000002d2198                PicoCpuFM68k
 COMMON         0x00000000002d2644       0xbc pico/z80if.o
                0x00000000002d2644                drZ80
                0x00000000002d26c0                z80_write_map
                0x00000000002d26e0                z80_read_map
 COMMON         0x00000000002d2700     0x1e0c pico/draw.o
                0x00000000002d2700                DrawLineDestIncrement
                0x00000000002d2704                HighLnSpr
                0x00000000002d4504                rendlines
                0x00000000002d4508                rendstatus_old
 COMMON         0x00000000002d450c      0x100 pico/media.o
                0x00000000002d450c                media_id_header
 COMMON         0x00000000002d460c       0x10 pico/cd/mcd.o
                0x00000000002d460c                pcd_event_times
 COMMON         0x00000000002d461c     0x1000 pico/cd/memory.o
                0x00000000002d461c                s68k_write16_map
                0x00000000002d4a1c                s68k_read16_map
                0x00000000002d4e1c                s68k_read8_map
                0x00000000002d521c                s68k_write8_map
 COMMON         0x00000000002d561c      0x4b4 pico/cd/sek.o
                0x00000000002d561c                PicoCpuFS68k
                0x00000000002d5ac8                SekCycleCntS68k
                0x00000000002d5acc                SekCycleAimS68k
 COMMON         0x00000000002d5ad0      0x66c pico/cd/cdd.o
                0x00000000002d5ad0                cdd
 COMMON         0x00000000002d613c     0x2684 pico/32x/32x.o
                0x00000000002d613c                Pico32x
                0x00000000002d61fc                p32x_event_times
                0x00000000002d6208                sh2s
 COMMON         0x00000000002d87c0       0x10 pico/32x/memory.o
                0x00000000002d87c0                Pico32xMem
                0x00000000002d87c4                p32x_bios_m
                0x00000000002d87c8                p32x_bios_g
                0x00000000002d87cc                p32x_bios_s
 COMMON         0x00000000002d87d0        0xc pico/32x/draw.o
                0x00000000002d87d0                Pico32xDrawMode
                0x00000000002d87d4                PicoScan32xEnd
                0x00000000002d87d8                PicoScan32xBegin
 COMMON         0x00000000002d87dc      0x208 pico/pico/pico.o
                0x00000000002d87dc                PicoPicohw
 COMMON         0x00000000002d89e4        0xc pico/carthw/carthw.o
                0x00000000002d89e4                carthw_ssf2_banks
                0x00000000002d89ec                carthw_ssf2_active
 COMMON         0x00000000002d89f0     0x1200 pico/sound/sound.o
                0x00000000002d89f0                cdda_out_buffer
 COMMON         0x00000000002d9bf0        0x4 pico/sound/sn76496.o
                0x00000000002d9bf0                sn76496_regs
 *fill*         0x00000000002d9bf4        0x4 
 COMMON         0x00000000002d9bf8    0x365e0 pico/sound/ym2612.o
                0x00000000002d9bf8                ym_tl_tab2
                0x00000000002db5f8                ym2612
                0x00000000002dc1d8                ym_tl_tab
 *fill*         0x00000000003101d8      0xe28 
 COMMON         0x0000000000311000   0x201000 cpu/drc/cmn.o
                0x0000000000311000                tcache
                0x0000000000312000                tcache_default
 COMMON         0x0000000000512000        0x8 /opt/miyoo/lib/gcc/arm-miyoo-linux-uclibcgnueabi/7.3.0/libgcov.a(_gcov_time_profiler.o)
                0x0000000000512000                __gcov_time_profiler_counter
 COMMON         0x0000000000512008     0x1030 /opt/miyoo/lib/gcc/arm-miyoo-linux-uclibcgnueabi/7.3.0/libgcov.a(_gcov.o)
                0x0000000000512008                __gcov_var
                0x0000000000513028                __gcov_root
                0x0000000000513038                . = ALIGN ((. != 0x0)?0x4:0x1)
                0x0000000000513038                _bss_end__ = .
                0x0000000000513038                __bss_end__ = .
                0x0000000000513038                . = ALIGN (0x4)
                0x0000000000513038                . = SEGMENT_START ("ldata-segment", .)
                0x0000000000513038                . = ALIGN (0x4)
                0x0000000000513038                __end__ = .
                0x0000000000513038                _end = .
                [!provide]                        PROVIDE (end = .)
                0x0000000000513038                . = DATA_SEGMENT_END (.)

.stab
 *(.stab)

.stabstr
 *(.stabstr)

.stab.excl
 *(.stab.excl)

.stab.exclstr
 *(.stab.exclstr)

.stab.index
 *(.stab.index)

.stab.indexstr
 *(.stab.indexstr)

.comment        0x0000000000000000       0x4d
 *(.comment)
 .comment       0x0000000000000000       0x2e /opt/miyoo/arm-miyoo-linux-uclibcgnueabi/sysroot/usr/lib/crti.o
                                         0x2f (size before relaxing)
 .comment       0x000000000000002e       0x1f /opt/miyoo/lib/gcc/arm-miyoo-linux-uclibcgnueabi/7.3.0/crtbegin.o
                                         0x20 (size before relaxing)
 .comment       0x000000000000004d       0x20 platform/opendingux/inputmap.o
 .comment       0x000000000000004d       0x20 platform/linux/emu.o
 .comment       0x000000000000004d       0x20 platform/linux/blit.o
 .comment       0x000000000000004d       0x20 platform/common/plat_sdl.o
 .comment       0x000000000000004d       0x20 platform/libpicofe/plat_sdl.o
 .comment       0x000000000000004d       0x20 platform/libpicofe/in_sdl.o
 .comment       0x000000000000004d       0x20 platform/libpicofe/plat_dummy.o
 .comment       0x000000000000004d       0x20 platform/common/main.o
 .comment       0x000000000000004d       0x20 platform/common/emu.o
 .comment       0x000000000000004d       0x20 platform/common/menu_pico.o
 .comment       0x000000000000004d       0x20 platform/common/config_file.o
 .comment       0x000000000000004d       0x20 platform/libpicofe/input.o
 .comment       0x000000000000004d       0x20 platform/libpicofe/readpng.o
 .comment       0x000000000000004d       0x20 platform/libpicofe/fonts.o
 .comment       0x000000000000004d       0x20 platform/libpicofe/linux/in_evdev.o
 .comment       0x000000000000004d       0x20 platform/libpicofe/linux/plat.o
 .comment       0x000000000000004d       0x20 platform/libpicofe/sndout.o
 .comment       0x000000000000004d       0x20 platform/libpicofe/sndout_sdl.o
 .comment       0x000000000000004d       0x20 platform/common/mp3.o
 .comment       0x000000000000004d       0x20 platform/common/mp3_dummy.o
 .comment       0x000000000000004d       0x20 unzip/unzip.o
 .comment       0x000000000000004d       0x20 pico/pico.o
 .comment       0x000000000000004d       0x20 pico/cart.o
 .comment       0x000000000000004d       0x20 pico/memory.o
 .comment       0x000000000000004d       0x20 pico/state.o
 .comment       0x000000000000004d       0x20 pico/sek.o
 .comment       0x000000000000004d       0x20 pico/z80if.o
 .comment       0x000000000000004d       0x20 pico/videoport.o
 .comment       0x000000000000004d       0x20 pico/draw2.o
 .comment       0x000000000000004d       0x20 pico/draw.o
 .comment       0x000000000000004d       0x20 pico/mode4.o
 .comment       0x000000000000004d       0x20 pico/misc.o
 .comment       0x000000000000004d       0x20 pico/eeprom.o
 .comment       0x000000000000004d       0x20 pico/patch.o
 .comment       0x000000000000004d       0x20 pico/debug.o
 .comment       0x000000000000004d       0x20 pico/media.o
 .comment       0x000000000000004d       0x20 pico/sms.o
 .comment       0x000000000000004d       0x20 pico/cd/mcd.o
 .comment       0x000000000000004d       0x20 pico/cd/memory.o
 .comment       0x000000000000004d       0x20 pico/cd/sek.o
 .comment       0x000000000000004d       0x20 pico/cd/cdc.o
 .comment       0x000000000000004d       0x20 pico/cd/cdd.o
 .comment       0x000000000000004d       0x20 pico/cd/cd_image.o
 .comment       0x000000000000004d       0x20 pico/cd/cue.o
 .comment       0x000000000000004d       0x20 pico/cd/gfx.o
 .comment       0x000000000000004d       0x20 pico/cd/gfx_dma.o
 .comment       0x000000000000004d       0x20 pico/cd/misc.o
 .comment       0x000000000000004d       0x20 pico/cd/pcm.o
 .comment       0x000000000000004d       0x20 pico/32x/32x.o
 .comment       0x000000000000004d       0x20 pico/32x/memory.o
 .comment       0x000000000000004d       0x20 pico/32x/draw.o
 .comment       0x000000000000004d       0x20 pico/32x/sh2soc.o
 .comment       0x000000000000004d       0x20 pico/32x/pwm.o
 .comment       0x000000000000004d       0x20 pico/pico/pico.o
 .comment       0x000000000000004d       0x20 pico/pico/memory.o
 .comment       0x000000000000004d       0x20 pico/pico/xpcm.o
 .comment       0x000000000000004d       0x20 pico/carthw/carthw.o
 .comment       0x000000000000004d       0x20 pico/carthw/eeprom_spi.o
 .comment       0x000000000000004d       0x20 pico/carthw/svp/svp.o
 .comment       0x000000000000004d       0x20 pico/carthw/svp/memory.o
 .comment       0x000000000000004d       0x20 pico/carthw/svp/ssp16.o
 .comment       0x000000000000004d       0x20 pico/carthw/svp/compiler.o
 .comment       0x000000000000004d       0x20 pico/sound/sound.o
 .comment       0x000000000000004d       0x20 pico/sound/sn76496.o
 .comment       0x000000000000004d       0x20 pico/sound/ym2612.o
 .comment       0x000000000000004d       0x20 cpu/fame/famec.o
 .comment       0x000000000000004d       0x20 cpu/drc/cmn.o
 .comment       0x000000000000004d       0x20 cpu/sh2/sh2.o
 .comment       0x000000000000004d       0x20 cpu/sh2/compiler.o
 .comment       0x000000000000004d       0x20 cpu/sh2/mame/sh2pico.o
 .comment       0x000000000000004d       0x20 /opt/miyoo/lib/gcc/arm-miyoo-linux-uclibcgnueabi/7.3.0/libgcov.a(_gcov_merge_add.o)
 .comment       0x000000000000004d       0x20 /opt/miyoo/lib/gcc/arm-miyoo-linux-uclibcgnueabi/7.3.0/libgcov.a(_gcov_merge_single.o)
 .comment       0x000000000000004d       0x20 /opt/miyoo/lib/gcc/arm-miyoo-linux-uclibcgnueabi/7.3.0/libgcov.a(_gcov_merge_ior.o)
 .comment       0x000000000000004d       0x20 /opt/miyoo/lib/gcc/arm-miyoo-linux-uclibcgnueabi/7.3.0/libgcov.a(_gcov_merge_time_profile.o)
 .comment       0x000000000000004d       0x20 /opt/miyoo/lib/gcc/arm-miyoo-linux-uclibcgnueabi/7.3.0/libgcov.a(_gcov_interval_profiler.o)
 .comment       0x000000000000004d       0x20 /opt/miyoo/lib/gcc/arm-miyoo-linux-uclibcgnueabi/7.3.0/libgcov.a(_gcov_pow2_profiler.o)
 .comment       0x000000000000004d       0x20 /opt/miyoo/lib/gcc/arm-miyoo-linux-uclibcgnueabi/7.3.0/libgcov.a(_gcov_one_value_profiler.o)
 .comment       0x000000000000004d       0x20 /opt/miyoo/lib/gcc/arm-miyoo-linux-uclibcgnueabi/7.3.0/libgcov.a(_gcov_average_profiler.o)
 .comment       0x000000000000004d       0x20 /opt/miyoo/lib/gcc/arm-miyoo-linux-uclibcgnueabi/7.3.0/libgcov.a(_gcov_ior_profiler.o)
 .comment       0x000000000000004d       0x20 /opt/miyoo/lib/gcc/arm-miyoo-linux-uclibcgnueabi/7.3.0/libgcov.a(_gcov_indirect_call_profiler_v2.o)
 .comment       0x000000000000004d       0x20 /opt/miyoo/lib/gcc/arm-miyoo-linux-uclibcgnueabi/7.3.0/libgcov.a(_gcov_time_profiler.o)
 .comment       0x000000000000004d       0x20 /opt/miyoo/lib/gcc/arm-miyoo-linux-uclibcgnueabi/7.3.0/libgcov.a(_gcov.o)
 .comment       0x000000000000004d       0x20 /opt/miyoo/lib/gcc/arm-miyoo-linux-uclibcgnueabi/7.3.0/libgcc.a(_popcountsi2.o)
 .comment       0x000000000000004d       0x20 /opt/miyoo/lib/gcc/arm-miyoo-linux-uclibcgnueabi/7.3.0/libgcc.a(_udivmoddi4.o)
 .comment       0x000000000000004d       0x20 /opt/miyoo/lib/gcc/arm-miyoo-linux-uclibcgnueabi/7.3.0/crtend.o
 .comment       0x000000000000004d       0x2f /opt/miyoo/arm-miyoo-linux-uclibcgnueabi/sysroot/usr/lib/crtn.o

.ARM.attributes
                0x0000000000000000       0x2e
 .ARM.attributes
                0x0000000000000000       0x22 /opt/miyoo/arm-miyoo-linux-uclibcgnueabi/sysroot/usr/lib/crt1.o
 .ARM.attributes
                0x0000000000000022       0x22 /opt/miyoo/arm-miyoo-linux-uclibcgnueabi/sysroot/usr/lib/crti.o
 .ARM.attributes
                0x0000000000000044       0x32 /opt/miyoo/lib/gcc/arm-miyoo-linux-uclibcgnueabi/7.3.0/crtbegin.o
 .ARM.attributes
                0x0000000000000076       0x32 platform/opendingux/inputmap.o
 .ARM.attributes
                0x00000000000000a8       0x32 platform/linux/emu.o
 .ARM.attributes
                0x00000000000000da       0x32 platform/linux/blit.o
 .ARM.attributes
                0x000000000000010c       0x32 platform/common/plat_sdl.o
 .ARM.attributes
                0x000000000000013e       0x32 platform/libpicofe/plat_sdl.o
 .ARM.attributes
                0x0000000000000170       0x32 platform/libpicofe/in_sdl.o
 .ARM.attributes
                0x00000000000001a2       0x32 platform/libpicofe/plat_dummy.o
 .ARM.attributes
                0x00000000000001d4       0x32 platform/common/main.o
 .ARM.attributes
                0x0000000000000206       0x32 platform/common/emu.o
 .ARM.attributes
                0x0000000000000238       0x32 platform/common/menu_pico.o
 .ARM.attributes
                0x000000000000026a       0x32 platform/common/config_file.o
 .ARM.attributes
                0x000000000000029c       0x32 platform/libpicofe/input.o
 .ARM.attributes
                0x00000000000002ce       0x32 platform/libpicofe/readpng.o
 .ARM.attributes
                0x0000000000000300       0x32 platform/libpicofe/fonts.o
 .ARM.attributes
                0x0000000000000332       0x32 platform/libpicofe/linux/in_evdev.o
 .ARM.attributes
                0x0000000000000364       0x32 platform/libpicofe/linux/plat.o
 .ARM.attributes
                0x0000000000000396       0x32 platform/libpicofe/sndout.o
 .ARM.attributes
                0x00000000000003c8       0x32 platform/libpicofe/sndout_sdl.o
 .ARM.attributes
                0x00000000000003fa       0x22 platform/libpicofe/arm_linux.o
 .ARM.attributes
                0x000000000000041c       0x32 platform/common/mp3.o
 .ARM.attributes
                0x000000000000044e       0x32 platform/common/mp3_dummy.o
 .ARM.attributes
                0x0000000000000480       0x32 unzip/unzip.o
 .ARM.attributes
                0x00000000000004b2       0x22 pico/draw_arm.o
 .ARM.attributes
                0x00000000000004d4       0x22 pico/draw2_arm.o
 .ARM.attributes
                0x00000000000004f6       0x22 pico/memory_arm.o
 .ARM.attributes
                0x0000000000000518       0x22 pico/sound/ym2612_arm.o
 .ARM.attributes
                0x000000000000053a       0x22 pico/misc_arm.o
 .ARM.attributes
                0x000000000000055c       0x22 pico/cd/misc_arm.o
 .ARM.attributes
                0x000000000000057e       0x22 pico/cd/memory_arm.o
 .ARM.attributes
                0x00000000000005a0       0x22 pico/sound/mix_arm.o
 .ARM.attributes
                0x00000000000005c2       0x32 pico/pico.o
 .ARM.attributes
                0x00000000000005f4       0x32 pico/cart.o
 .ARM.attributes
                0x0000000000000626       0x32 pico/memory.o
 .ARM.attributes
                0x0000000000000658       0x32 pico/state.o
 .ARM.attributes
                0x000000000000068a       0x32 pico/sek.o
 .ARM.attributes
                0x00000000000006bc       0x32 pico/z80if.o
 .ARM.attributes
                0x00000000000006ee       0x32 pico/videoport.o
 .ARM.attributes
                0x0000000000000720       0x32 pico/draw2.o
 .ARM.attributes
                0x0000000000000752       0x32 pico/draw.o
 .ARM.attributes
                0x0000000000000784       0x32 pico/mode4.o
 .ARM.attributes
                0x00000000000007b6       0x32 pico/misc.o
 .ARM.attributes
                0x00000000000007e8       0x32 pico/eeprom.o
 .ARM.attributes
                0x000000000000081a       0x32 pico/patch.o
 .ARM.attributes
                0x000000000000084c       0x32 pico/debug.o
 .ARM.attributes
                0x000000000000087e       0x32 pico/media.o
 .ARM.attributes
                0x00000000000008b0       0x32 pico/sms.o
 .ARM.attributes
                0x00000000000008e2       0x32 pico/cd/mcd.o
 .ARM.attributes
                0x0000000000000914       0x32 pico/cd/memory.o
 .ARM.attributes
                0x0000000000000946       0x32 pico/cd/sek.o
 .ARM.attributes
                0x0000000000000978       0x32 pico/cd/cdc.o
 .ARM.attributes
                0x00000000000009aa       0x32 pico/cd/cdd.o
 .ARM.attributes
                0x00000000000009dc       0x32 pico/cd/cd_image.o
 .ARM.attributes
                0x0000000000000a0e       0x32 pico/cd/cue.o
 .ARM.attributes
                0x0000000000000a40       0x32 pico/cd/gfx.o
 .ARM.attributes
                0x0000000000000a72       0x32 pico/cd/gfx_dma.o
 .ARM.attributes
                0x0000000000000aa4       0x32 pico/cd/misc.o
 .ARM.attributes
                0x0000000000000ad6       0x32 pico/cd/pcm.o
 .ARM.attributes
                0x0000000000000b08       0x32 pico/32x/32x.o
 .ARM.attributes
                0x0000000000000b3a       0x32 pico/32x/memory.o
 .ARM.attributes
                0x0000000000000b6c       0x32 pico/32x/draw.o
 .ARM.attributes
                0x0000000000000b9e       0x32 pico/32x/sh2soc.o
 .ARM.attributes
                0x0000000000000bd0       0x32 pico/32x/pwm.o
 .ARM.attributes
                0x0000000000000c02       0x32 pico/pico/pico.o
 .ARM.attributes
                0x0000000000000c34       0x32 pico/pico/memory.o
 .ARM.attributes
                0x0000000000000c66       0x32 pico/pico/xpcm.o
 .ARM.attributes
                0x0000000000000c98       0x32 pico/carthw/carthw.o
 .ARM.attributes
                0x0000000000000cca       0x32 pico/carthw/eeprom_spi.o
 .ARM.attributes
                0x0000000000000cfc       0x32 pico/carthw/svp/svp.o
 .ARM.attributes
                0x0000000000000d2e       0x32 pico/carthw/svp/memory.o
 .ARM.attributes
                0x0000000000000d60       0x32 pico/carthw/svp/ssp16.o
 .ARM.attributes
                0x0000000000000d92       0x22 pico/carthw/svp/stub_arm.o
 .ARM.attributes
                0x0000000000000db4       0x32 pico/carthw/svp/compiler.o
 .ARM.attributes
                0x0000000000000de6       0x32 pico/sound/sound.o
 .ARM.attributes
                0x0000000000000e18       0x32 pico/sound/sn76496.o
 .ARM.attributes
                0x0000000000000e4a       0x32 pico/sound/ym2612.o
 .ARM.attributes
                0x0000000000000e7c       0x32 cpu/fame/famec.o
 .ARM.attributes
                0x0000000000000eae       0x22 cpu/DrZ80/drz80.o
 .ARM.attributes
                0x0000000000000ed0       0x32 cpu/drc/cmn.o
 .ARM.attributes
                0x0000000000000f02       0x32 cpu/sh2/sh2.o
 .ARM.attributes
                0x0000000000000f34       0x32 cpu/sh2/compiler.o
 .ARM.attributes
                0x0000000000000f66       0x32 cpu/sh2/mame/sh2pico.o
 .ARM.attributes
                0x0000000000000f98       0x32 /opt/miyoo/lib/gcc/arm-miyoo-linux-uclibcgnueabi/7.3.0/libgcov.a(_gcov_merge_add.o)
 .ARM.attributes
                0x0000000000000fca       0x32 /opt/miyoo/lib/gcc/arm-miyoo-linux-uclibcgnueabi/7.3.0/libgcov.a(_gcov_merge_single.o)
 .ARM.attributes
                0x0000000000000ffc       0x32 /opt/miyoo/lib/gcc/arm-miyoo-linux-uclibcgnueabi/7.3.0/libgcov.a(_gcov_merge_ior.o)
 .ARM.attributes
                0x000000000000102e       0x32 /opt/miyoo/lib/gcc/arm-miyoo-linux-uclibcgnueabi/7.3.0/libgcov.a(_gcov_merge_time_profile.o)
 .ARM.attributes
                0x0000000000001060       0x32 /opt/miyoo/lib/gcc/arm-miyoo-linux-uclibcgnueabi/7.3.0/libgcov.a(_gcov_interval_profiler.o)
 .ARM.attributes
                0x0000000000001092       0x32 /opt/miyoo/lib/gcc/arm-miyoo-linux-uclibcgnueabi/7.3.0/libgcov.a(_gcov_pow2_profiler.o)
 .ARM.attributes
                0x00000000000010c4       0x32 /opt/miyoo/lib/gcc/arm-miyoo-linux-uclibcgnueabi/7.3.0/libgcov.a(_gcov_one_value_profiler.o)
 .ARM.attributes
                0x00000000000010f6       0x32 /opt/miyoo/lib/gcc/arm-miyoo-linux-uclibcgnueabi/7.3.0/libgcov.a(_gcov_average_profiler.o)
 .ARM.attributes
                0x0000000000001128       0x32 /opt/miyoo/lib/gcc/arm-miyoo-linux-uclibcgnueabi/7.3.0/libgcov.a(_gcov_ior_profiler.o)
 .ARM.attributes
                0x000000000000115a       0x32 /opt/miyoo/lib/gcc/arm-miyoo-linux-uclibcgnueabi/7.3.0/libgcov.a(_gcov_indirect_call_profiler_v2.o)
 .ARM.attributes
                0x000000000000118c       0x32 /opt/miyoo/lib/gcc/arm-miyoo-linux-uclibcgnueabi/7.3.0/libgcov.a(_gcov_time_profiler.o)
 .ARM.attributes
                0x00000000000011be       0x32 /opt/miyoo/lib/gcc/arm-miyoo-linux-uclibcgnueabi/7.3.0/libgcov.a(_gcov.o)
 .ARM.attributes
                0x00000000000011f0       0x24 /opt/miyoo/lib/gcc/arm-miyoo-linux-uclibcgnueabi/7.3.0/libgcc.a(_udivsi3.o)
 .ARM.attributes
                0x0000000000001214       0x24 /opt/miyoo/lib/gcc/arm-miyoo-linux-uclibcgnueabi/7.3.0/libgcc.a(_divsi3.o)
 .ARM.attributes
                0x0000000000001238       0x24 /opt/miyoo/lib/gcc/arm-miyoo-linux-uclibcgnueabi/7.3.0/libgcc.a(_arm_addsubdf3.o)
 .ARM.attributes
                0x000000000000125c       0x24 /opt/miyoo/lib/gcc/arm-miyoo-linux-uclibcgnueabi/7.3.0/libgcc.a(_arm_muldivdf3.o)
 .ARM.attributes
                0x0000000000001280       0x24 /opt/miyoo/lib/gcc/arm-miyoo-linux-uclibcgnueabi/7.3.0/libgcc.a(_arm_cmpdf2.o)
 .ARM.attributes
                0x00000000000012a4       0x24 /opt/miyoo/lib/gcc/arm-miyoo-linux-uclibcgnueabi/7.3.0/libgcc.a(_arm_fixdfsi.o)
 .ARM.attributes
                0x00000000000012c8       0x24 /opt/miyoo/lib/gcc/arm-miyoo-linux-uclibcgnueabi/7.3.0/libgcc.a(_arm_fixunsdfsi.o)
 .ARM.attributes
                0x00000000000012ec       0x24 /opt/miyoo/lib/gcc/arm-miyoo-linux-uclibcgnueabi/7.3.0/libgcc.a(_arm_truncdfsf2.o)
 .ARM.attributes
                0x0000000000001310       0x24 /opt/miyoo/lib/gcc/arm-miyoo-linux-uclibcgnueabi/7.3.0/libgcc.a(_arm_addsubsf3.o)
 .ARM.attributes
                0x0000000000001334       0x24 /opt/miyoo/lib/gcc/arm-miyoo-linux-uclibcgnueabi/7.3.0/libgcc.a(_arm_muldivsf3.o)
 .ARM.attributes
                0x0000000000001358       0x24 /opt/miyoo/lib/gcc/arm-miyoo-linux-uclibcgnueabi/7.3.0/libgcc.a(_arm_fixsfsi.o)
 .ARM.attributes
                0x000000000000137c       0x24 /opt/miyoo/lib/gcc/arm-miyoo-linux-uclibcgnueabi/7.3.0/libgcc.a(_aeabi_ldivmod.o)
 .ARM.attributes
                0x00000000000013a0       0x24 /opt/miyoo/lib/gcc/arm-miyoo-linux-uclibcgnueabi/7.3.0/libgcc.a(_dvmd_lnx.o)
 .ARM.attributes
                0x00000000000013c4       0x32 /opt/miyoo/lib/gcc/arm-miyoo-linux-uclibcgnueabi/7.3.0/libgcc.a(_popcountsi2.o)
 .ARM.attributes
                0x00000000000013f6       0x32 /opt/miyoo/lib/gcc/arm-miyoo-linux-uclibcgnueabi/7.3.0/libgcc.a(_udivmoddi4.o)
 .ARM.attributes
                0x0000000000001428       0x32 /opt/miyoo/lib/gcc/arm-miyoo-linux-uclibcgnueabi/7.3.0/crtend.o
 .ARM.attributes
                0x000000000000145a       0x22 /opt/miyoo/arm-miyoo-linux-uclibcgnueabi/sysroot/usr/lib/crtn.o

.debug
 *(.debug)

.line
 *(.line)

.debug_srcinfo
 *(.debug_srcinfo)

.debug_sfnames
 *(.debug_sfnames)

.debug_aranges  0x0000000000000000      0xd58
 *(.debug_aranges)
 .debug_aranges
                0x0000000000000000       0x18 platform/opendingux/inputmap.o
 .debug_aranges
                0x0000000000000018       0x20 platform/linux/emu.o
 .debug_aranges
                0x0000000000000038       0x20 platform/linux/blit.o
 .debug_aranges
                0x0000000000000058       0x20 platform/common/plat_sdl.o
 .debug_aranges
                0x0000000000000078       0x20 platform/libpicofe/plat_sdl.o
 .debug_aranges
                0x0000000000000098       0x20 platform/libpicofe/in_sdl.o
 .debug_aranges
                0x00000000000000b8       0x20 platform/libpicofe/plat_dummy.o
 .debug_aranges
                0x00000000000000d8       0x28 platform/common/main.o
 .debug_aranges
                0x0000000000000100       0x20 platform/common/emu.o
 .debug_aranges
                0x0000000000000120       0x20 platform/common/menu_pico.o
 .debug_aranges
                0x0000000000000140       0x20 platform/common/config_file.o
 .debug_aranges
                0x0000000000000160       0x20 platform/libpicofe/input.o
 .debug_aranges
                0x0000000000000180       0x20 platform/libpicofe/readpng.o
 .debug_aranges
                0x00000000000001a0       0x20 platform/libpicofe/fonts.o
 .debug_aranges
                0x00000000000001c0       0x20 platform/libpicofe/linux/in_evdev.o
 .debug_aranges
                0x00000000000001e0       0x20 platform/libpicofe/linux/plat.o
 .debug_aranges
                0x0000000000000200       0x20 platform/libpicofe/sndout.o
 .debug_aranges
                0x0000000000000220       0x20 platform/libpicofe/sndout_sdl.o
 .debug_aranges
                0x0000000000000240       0x20 platform/libpicofe/arm_linux.o
 .debug_aranges
                0x0000000000000260       0x20 platform/common/mp3.o
 .debug_aranges
                0x0000000000000280       0x20 platform/common/mp3_dummy.o
 .debug_aranges
                0x00000000000002a0       0x20 unzip/unzip.o
 .debug_aranges
                0x00000000000002c0       0x20 pico/draw_arm.o
 .debug_aranges
                0x00000000000002e0       0x20 pico/draw2_arm.o
 .debug_aranges
                0x0000000000000300       0x20 pico/memory_arm.o
 .debug_aranges
                0x0000000000000320       0x20 pico/sound/ym2612_arm.o
 .debug_aranges
                0x0000000000000340       0x20 pico/misc_arm.o
 .debug_aranges
                0x0000000000000360       0x20 pico/cd/misc_arm.o
 .debug_aranges
                0x0000000000000380       0x20 pico/cd/memory_arm.o
 .debug_aranges
                0x00000000000003a0       0x20 pico/sound/mix_arm.o
 .debug_aranges
                0x00000000000003c0       0x20 pico/pico.o
 .debug_aranges
                0x00000000000003e0       0x28 pico/cart.o
 .debug_aranges
                0x0000000000000408       0x20 pico/memory.o
 .debug_aranges
                0x0000000000000428       0x20 pico/state.o
 .debug_aranges
                0x0000000000000448       0x20 pico/sek.o
 .debug_aranges
                0x0000000000000468       0x20 pico/z80if.o
 .debug_aranges
                0x0000000000000488       0x20 pico/videoport.o
 .debug_aranges
                0x00000000000004a8       0x20 pico/draw2.o
 .debug_aranges
                0x00000000000004c8       0x20 pico/draw.o
 .debug_aranges
                0x00000000000004e8       0x20 pico/mode4.o
 .debug_aranges
                0x0000000000000508       0x18 pico/misc.o
 .debug_aranges
                0x0000000000000520       0x20 pico/eeprom.o
 .debug_aranges
                0x0000000000000540       0x20 pico/patch.o
 .debug_aranges
                0x0000000000000560       0x20 pico/debug.o
 .debug_aranges
                0x0000000000000580       0x20 pico/media.o
 .debug_aranges
                0x00000000000005a0       0x20 pico/sms.o
 .debug_aranges
                0x00000000000005c0       0x20 pico/cd/mcd.o
 .debug_aranges
                0x00000000000005e0       0x20 pico/cd/memory.o
 .debug_aranges
                0x0000000000000600       0x20 pico/cd/sek.o
 .debug_aranges
                0x0000000000000620       0x20 pico/cd/cdc.o
 .debug_aranges
                0x0000000000000640       0x20 pico/cd/cdd.o
 .debug_aranges
                0x0000000000000660       0x20 pico/cd/cd_image.o
 .debug_aranges
                0x0000000000000680       0x20 pico/cd/cue.o
 .debug_aranges
                0x00000000000006a0       0x20 pico/cd/gfx.o
 .debug_aranges
                0x00000000000006c0       0x20 pico/cd/gfx_dma.o
 .debug_aranges
                0x00000000000006e0       0x18 pico/cd/misc.o
 .debug_aranges
                0x00000000000006f8       0x20 pico/cd/pcm.o
 .debug_aranges
                0x0000000000000718       0x20 pico/32x/32x.o
 .debug_aranges
                0x0000000000000738       0x20 pico/32x/memory.o
 .debug_aranges
                0x0000000000000758       0x20 pico/32x/draw.o
 .debug_aranges
                0x0000000000000778       0x20 pico/32x/sh2soc.o
 .debug_aranges
                0x0000000000000798       0x20 pico/32x/pwm.o
 .debug_aranges
                0x00000000000007b8       0x20 pico/pico/pico.o
 .debug_aranges
                0x00000000000007d8       0x20 pico/pico/memory.o
 .debug_aranges
                0x00000000000007f8       0x20 pico/pico/xpcm.o
 .debug_aranges
                0x0000000000000818       0x20 pico/carthw/carthw.o
 .debug_aranges
                0x0000000000000838       0x20 pico/carthw/eeprom_spi.o
 .debug_aranges
                0x0000000000000858       0x20 pico/carthw/svp/svp.o
 .debug_aranges
                0x0000000000000878       0x20 pico/carthw/svp/memory.o
 .debug_aranges
                0x0000000000000898       0x20 pico/carthw/svp/ssp16.o
 .debug_aranges
                0x00000000000008b8       0x20 pico/carthw/svp/stub_arm.o
 .debug_aranges
                0x00000000000008d8       0x20 pico/carthw/svp/compiler.o
 .debug_aranges
                0x00000000000008f8       0x20 pico/sound/sound.o
 .debug_aranges
                0x0000000000000918       0x20 pico/sound/sn76496.o
 .debug_aranges
                0x0000000000000938       0x20 pico/sound/ym2612.o
 .debug_aranges
                0x0000000000000958       0x20 cpu/DrZ80/drz80.o
 .debug_aranges
                0x0000000000000978       0x20 cpu/drc/cmn.o
 .debug_aranges
                0x0000000000000998       0x20 cpu/sh2/sh2.o
 .debug_aranges
                0x00000000000009b8       0x28 cpu/sh2/compiler.o
 .debug_aranges
                0x00000000000009e0       0x20 cpu/sh2/mame/sh2pico.o
 .debug_aranges
                0x0000000000000a00       0x20 /opt/miyoo/lib/gcc/arm-miyoo-linux-uclibcgnueabi/7.3.0/libgcov.a(_gcov_merge_add.o)
 .debug_aranges
                0x0000000000000a20       0x20 /opt/miyoo/lib/gcc/arm-miyoo-linux-uclibcgnueabi/7.3.0/libgcov.a(_gcov_merge_single.o)
 .debug_aranges
                0x0000000000000a40       0x20 /opt/miyoo/lib/gcc/arm-miyoo-linux-uclibcgnueabi/7.3.0/libgcov.a(_gcov_merge_ior.o)
 .debug_aranges
                0x0000000000000a60       0x20 /opt/miyoo/lib/gcc/arm-miyoo-linux-uclibcgnueabi/7.3.0/libgcov.a(_gcov_merge_time_profile.o)
 .debug_aranges
                0x0000000000000a80       0x20 /opt/miyoo/lib/gcc/arm-miyoo-linux-uclibcgnueabi/7.3.0/libgcov.a(_gcov_interval_profiler.o)
 .debug_aranges
                0x0000000000000aa0       0x20 /opt/miyoo/lib/gcc/arm-miyoo-linux-uclibcgnueabi/7.3.0/libgcov.a(_gcov_pow2_profiler.o)
 .debug_aranges
                0x0000000000000ac0       0x20 /opt/miyoo/lib/gcc/arm-miyoo-linux-uclibcgnueabi/7.3.0/libgcov.a(_gcov_one_value_profiler.o)
 .debug_aranges
                0x0000000000000ae0       0x20 /opt/miyoo/lib/gcc/arm-miyoo-linux-uclibcgnueabi/7.3.0/libgcov.a(_gcov_average_profiler.o)
 .debug_aranges
                0x0000000000000b00       0x20 /opt/miyoo/lib/gcc/arm-miyoo-linux-uclibcgnueabi/7.3.0/libgcov.a(_gcov_ior_profiler.o)
 .debug_aranges
                0x0000000000000b20       0x20 /opt/miyoo/lib/gcc/arm-miyoo-linux-uclibcgnueabi/7.3.0/libgcov.a(_gcov_indirect_call_profiler_v2.o)
 .debug_aranges
                0x0000000000000b40       0x18 /opt/miyoo/lib/gcc/arm-miyoo-linux-uclibcgnueabi/7.3.0/libgcov.a(_gcov_time_profiler.o)
 .debug_aranges
                0x0000000000000b58       0x20 /opt/miyoo/lib/gcc/arm-miyoo-linux-uclibcgnueabi/7.3.0/libgcov.a(_gcov.o)
 .debug_aranges
                0x0000000000000b78       0x20 /opt/miyoo/lib/gcc/arm-miyoo-linux-uclibcgnueabi/7.3.0/libgcc.a(_udivsi3.o)
 .debug_aranges
                0x0000000000000b98       0x20 /opt/miyoo/lib/gcc/arm-miyoo-linux-uclibcgnueabi/7.3.0/libgcc.a(_divsi3.o)
 .debug_aranges
                0x0000000000000bb8       0x20 /opt/miyoo/lib/gcc/arm-miyoo-linux-uclibcgnueabi/7.3.0/libgcc.a(_arm_addsubdf3.o)
 .debug_aranges
                0x0000000000000bd8       0x20 /opt/miyoo/lib/gcc/arm-miyoo-linux-uclibcgnueabi/7.3.0/libgcc.a(_arm_muldivdf3.o)
 .debug_aranges
                0x0000000000000bf8       0x20 /opt/miyoo/lib/gcc/arm-miyoo-linux-uclibcgnueabi/7.3.0/libgcc.a(_arm_cmpdf2.o)
 .debug_aranges
                0x0000000000000c18       0x20 /opt/miyoo/lib/gcc/arm-miyoo-linux-uclibcgnueabi/7.3.0/libgcc.a(_arm_fixdfsi.o)
 .debug_aranges
                0x0000000000000c38       0x20 /opt/miyoo/lib/gcc/arm-miyoo-linux-uclibcgnueabi/7.3.0/libgcc.a(_arm_fixunsdfsi.o)
 .debug_aranges
                0x0000000000000c58       0x20 /opt/miyoo/lib/gcc/arm-miyoo-linux-uclibcgnueabi/7.3.0/libgcc.a(_arm_truncdfsf2.o)
 .debug_aranges
                0x0000000000000c78       0x20 /opt/miyoo/lib/gcc/arm-miyoo-linux-uclibcgnueabi/7.3.0/libgcc.a(_arm_addsubsf3.o)
 .debug_aranges
                0x0000000000000c98       0x20 /opt/miyoo/lib/gcc/arm-miyoo-linux-uclibcgnueabi/7.3.0/libgcc.a(_arm_muldivsf3.o)
 .debug_aranges
                0x0000000000000cb8       0x20 /opt/miyoo/lib/gcc/arm-miyoo-linux-uclibcgnueabi/7.3.0/libgcc.a(_arm_fixsfsi.o)
 .debug_aranges
                0x0000000000000cd8       0x20 /opt/miyoo/lib/gcc/arm-miyoo-linux-uclibcgnueabi/7.3.0/libgcc.a(_aeabi_ldivmod.o)
 .debug_aranges
                0x0000000000000cf8       0x20 /opt/miyoo/lib/gcc/arm-miyoo-linux-uclibcgnueabi/7.3.0/libgcc.a(_dvmd_lnx.o)
 .debug_aranges
                0x0000000000000d18       0x20 /opt/miyoo/lib/gcc/arm-miyoo-linux-uclibcgnueabi/7.3.0/libgcc.a(_popcountsi2.o)
 .debug_aranges
                0x0000000000000d38       0x20 /opt/miyoo/lib/gcc/arm-miyoo-linux-uclibcgnueabi/7.3.0/libgcc.a(_udivmoddi4.o)

.debug_pubnames
 *(.debug_pubnames)

.debug_info     0x0000000000000000    0xc4bd8
 *(.debug_info .gnu.linkonce.wi.*)
 .debug_info    0x0000000000000000      0x73f platform/opendingux/inputmap.o
 .debug_info    0x000000000000073f     0x2d64 platform/linux/emu.o
 .debug_info    0x00000000000034a3      0x368 platform/linux/blit.o
 .debug_info    0x000000000000380b     0x1cda platform/common/plat_sdl.o
 .debug_info    0x00000000000054e5     0x1e59 platform/libpicofe/plat_sdl.o
 .debug_info    0x000000000000733e     0x1e5b platform/libpicofe/in_sdl.o
 .debug_info    0x0000000000009199      0x257 platform/libpicofe/plat_dummy.o
 .debug_info    0x00000000000093f0      0xb92 platform/common/main.o
 .debug_info    0x0000000000009f82     0x696f platform/common/emu.o
 .debug_info    0x00000000000108f1     0x9795 platform/common/menu_pico.o
 .debug_info    0x000000000001a086     0x267e platform/common/config_file.o
 .debug_info    0x000000000001c704     0x27cc platform/libpicofe/input.o
 .debug_info    0x000000000001eed0      0xd23 platform/libpicofe/readpng.o
 .debug_info    0x000000000001fbf3      0x669 platform/libpicofe/fonts.o
 .debug_info    0x000000000002025c     0x187e platform/libpicofe/linux/in_evdev.o
 .debug_info    0x0000000000021ada     0x1161 platform/libpicofe/linux/plat.o
 .debug_info    0x0000000000022c3b      0x5ca platform/libpicofe/sndout.o
 .debug_info    0x0000000000023205      0xb83 platform/libpicofe/sndout_sdl.o
 .debug_info    0x0000000000023d88       0x26 platform/libpicofe/arm_linux.o
 .debug_info    0x0000000000023dae     0x2144 platform/common/mp3.o
 .debug_info    0x0000000000025ef2      0x39d platform/common/mp3_dummy.o
 .debug_info    0x000000000002628f     0x1b6e unzip/unzip.o
 .debug_info    0x0000000000027dfd       0x26 pico/draw_arm.o
 .debug_info    0x0000000000027e23       0x26 pico/draw2_arm.o
 .debug_info    0x0000000000027e49       0x26 pico/memory_arm.o
 .debug_info    0x0000000000027e6f       0x26 pico/sound/ym2612_arm.o
 .debug_info    0x0000000000027e95       0x26 pico/misc_arm.o
 .debug_info    0x0000000000027ebb       0x26 pico/cd/misc_arm.o
 .debug_info    0x0000000000027ee1       0x26 pico/cd/memory_arm.o
 .debug_info    0x0000000000027f07       0x26 pico/sound/mix_arm.o
 .debug_info    0x0000000000027f2d     0x2d51 pico/pico.o
 .debug_info    0x000000000002ac7e     0x593f pico/cart.o
 .debug_info    0x00000000000305bd     0x5746 pico/memory.o
 .debug_info    0x0000000000035d03     0x6035 pico/state.o
 .debug_info    0x000000000003bd38     0x2222 pico/sek.o
 .debug_info    0x000000000003df5a     0x20fc pico/z80if.o
 .debug_info    0x0000000000040056     0x2adb pico/videoport.o
 .debug_info    0x0000000000042b31     0x20d6 pico/draw2.o
 .debug_info    0x0000000000044c07     0x37bd pico/draw.o
 .debug_info    0x00000000000483c4     0x2262 pico/mode4.o
 .debug_info    0x000000000004a626     0x1b4b pico/misc.o
 .debug_info    0x000000000004c171     0x1f37 pico/eeprom.o
 .debug_info    0x000000000004e0a8     0x27ab pico/patch.o
 .debug_info    0x0000000000050853     0x3b18 pico/debug.o
 .debug_info    0x000000000005436b     0x2d20 pico/media.o
 .debug_info    0x000000000005708b     0x247c pico/sms.o
 .debug_info    0x0000000000059507     0x35a0 pico/cd/mcd.o
 .debug_info    0x000000000005caa7     0x3908 pico/cd/memory.o
 .debug_info    0x00000000000603af     0x216c pico/cd/sek.o
 .debug_info    0x000000000006251b     0x27f4 pico/cd/cdc.o
 .debug_info    0x0000000000064d0f     0x2e96 pico/cd/cdd.o
 .debug_info    0x0000000000067ba5     0x29c0 pico/cd/cd_image.o
 .debug_info    0x000000000006a565     0x2c33 pico/cd/cue.o
 .debug_info    0x000000000006d198     0x2588 pico/cd/gfx.o
 .debug_info    0x000000000006f720     0x1fcd pico/cd/gfx_dma.o
 .debug_info    0x00000000000716ed     0x1b2f pico/cd/misc.o
 .debug_info    0x000000000007321c     0x2185 pico/cd/pcm.o
 .debug_info    0x00000000000753a1     0x3bb2 pico/32x/32x.o
 .debug_info    0x0000000000078f53     0x5597 pico/32x/memory.o
 .debug_info    0x000000000007e4ea     0x2e83 pico/32x/draw.o
 .debug_info    0x000000000008136d     0x29e2 pico/32x/sh2soc.o
 .debug_info    0x0000000000083d4f     0x241b pico/32x/pwm.o
 .debug_info    0x000000000008616a     0x1d14 pico/pico/pico.o
 .debug_info    0x0000000000087e7e     0x1e21 pico/pico/memory.o
 .debug_info    0x0000000000089c9f     0x1d94 pico/pico/xpcm.o
 .debug_info    0x000000000008ba33     0x3d19 pico/carthw/carthw.o
 .debug_info    0x000000000008f74c     0x1cc8 pico/carthw/eeprom_spi.o
 .debug_info    0x0000000000091414     0x1eb1 pico/carthw/svp/svp.o
 .debug_info    0x00000000000932c5     0x2073 pico/carthw/svp/memory.o
 .debug_info    0x0000000000095338     0x345b pico/carthw/svp/ssp16.o
 .debug_info    0x0000000000098793       0x26 pico/carthw/svp/stub_arm.o
 .debug_info    0x00000000000987b9     0x5737 pico/carthw/svp/compiler.o
 .debug_info    0x000000000009def0     0x3194 pico/sound/sound.o
 .debug_info    0x00000000000a1084      0x3f5 pico/sound/sn76496.o
 .debug_info    0x00000000000a1479     0x2f99 pico/sound/ym2612.o
 .debug_info    0x00000000000a4412       0x26 cpu/DrZ80/drz80.o
 .debug_info    0x00000000000a4438     0x1cf3 cpu/drc/cmn.o
 .debug_info    0x00000000000a612b      0x7ce cpu/sh2/sh2.o
 .debug_info    0x00000000000a68f9     0x9ce2 cpu/sh2/compiler.o
 .debug_info    0x00000000000b05db     0x5d33 cpu/sh2/mame/sh2pico.o
 .debug_info    0x00000000000b630e      0xe45 /opt/miyoo/lib/gcc/arm-miyoo-linux-uclibcgnueabi/7.3.0/libgcov.a(_gcov_merge_add.o)
 .debug_info    0x00000000000b7153      0xec9 /opt/miyoo/lib/gcc/arm-miyoo-linux-uclibcgnueabi/7.3.0/libgcov.a(_gcov_merge_single.o)
 .debug_info    0x00000000000b801c      0xe45 /opt/miyoo/lib/gcc/arm-miyoo-linux-uclibcgnueabi/7.3.0/libgcov.a(_gcov_merge_ior.o)
 .debug_info    0x00000000000b8e61      0xe64 /opt/miyoo/lib/gcc/arm-miyoo-linux-uclibcgnueabi/7.3.0/libgcov.a(_gcov_merge_time_profile.o)
 .debug_info    0x00000000000b9cc5      0xe31 /opt/miyoo/lib/gcc/arm-miyoo-linux-uclibcgnueabi/7.3.0/libgcov.a(_gcov_interval_profiler.o)
 .debug_info    0x00000000000baaf6      0xe06 /opt/miyoo/lib/gcc/arm-miyoo-linux-uclibcgnueabi/7.3.0/libgcov.a(_gcov_pow2_profiler.o)
 .debug_info    0x00000000000bb8fc      0xe7c /opt/miyoo/lib/gcc/arm-miyoo-linux-uclibcgnueabi/7.3.0/libgcov.a(_gcov_one_value_profiler.o)
 .debug_info    0x00000000000bc778      0xe09 /opt/miyoo/lib/gcc/arm-miyoo-linux-uclibcgnueabi/7.3.0/libgcov.a(_gcov_average_profiler.o)
 .debug_info    0x00000000000bd581      0xe0c /opt/miyoo/lib/gcc/arm-miyoo-linux-uclibcgnueabi/7.3.0/libgcov.a(_gcov_ior_profiler.o)
 .debug_info    0x00000000000be38d      0xee5 /opt/miyoo/lib/gcc/arm-miyoo-linux-uclibcgnueabi/7.3.0/libgcov.a(_gcov_indirect_call_profiler_v2.o)
 .debug_info    0x00000000000bf272      0xe2c /opt/miyoo/lib/gcc/arm-miyoo-linux-uclibcgnueabi/7.3.0/libgcov.a(_gcov_time_profiler.o)
 .debug_info    0x00000000000c009e     0x2fb9 /opt/miyoo/lib/gcc/arm-miyoo-linux-uclibcgnueabi/7.3.0/libgcov.a(_gcov.o)
 .debug_info    0x00000000000c3057       0x26 /opt/miyoo/lib/gcc/arm-miyoo-linux-uclibcgnueabi/7.3.0/libgcc.a(_udivsi3.o)
 .debug_info    0x00000000000c307d       0x26 /opt/miyoo/lib/gcc/arm-miyoo-linux-uclibcgnueabi/7.3.0/libgcc.a(_divsi3.o)
 .debug_info    0x00000000000c30a3       0x26 /opt/miyoo/lib/gcc/arm-miyoo-linux-uclibcgnueabi/7.3.0/libgcc.a(_arm_addsubdf3.o)
 .debug_info    0x00000000000c30c9       0x26 /opt/miyoo/lib/gcc/arm-miyoo-linux-uclibcgnueabi/7.3.0/libgcc.a(_arm_muldivdf3.o)
 .debug_info    0x00000000000c30ef       0x26 /opt/miyoo/lib/gcc/arm-miyoo-linux-uclibcgnueabi/7.3.0/libgcc.a(_arm_cmpdf2.o)
 .debug_info    0x00000000000c3115       0x26 /opt/miyoo/lib/gcc/arm-miyoo-linux-uclibcgnueabi/7.3.0/libgcc.a(_arm_fixdfsi.o)
 .debug_info    0x00000000000c313b       0x26 /opt/miyoo/lib/gcc/arm-miyoo-linux-uclibcgnueabi/7.3.0/libgcc.a(_arm_fixunsdfsi.o)
 .debug_info    0x00000000000c3161       0x26 /opt/miyoo/lib/gcc/arm-miyoo-linux-uclibcgnueabi/7.3.0/libgcc.a(_arm_truncdfsf2.o)
 .debug_info    0x00000000000c3187       0x26 /opt/miyoo/lib/gcc/arm-miyoo-linux-uclibcgnueabi/7.3.0/libgcc.a(_arm_addsubsf3.o)
 .debug_info    0x00000000000c31ad       0x26 /opt/miyoo/lib/gcc/arm-miyoo-linux-uclibcgnueabi/7.3.0/libgcc.a(_arm_muldivsf3.o)
 .debug_info    0x00000000000c31d3       0x26 /opt/miyoo/lib/gcc/arm-miyoo-linux-uclibcgnueabi/7.3.0/libgcc.a(_arm_fixsfsi.o)
 .debug_info    0x00000000000c31f9       0x26 /opt/miyoo/lib/gcc/arm-miyoo-linux-uclibcgnueabi/7.3.0/libgcc.a(_aeabi_ldivmod.o)
 .debug_info    0x00000000000c321f       0x26 /opt/miyoo/lib/gcc/arm-miyoo-linux-uclibcgnueabi/7.3.0/libgcc.a(_dvmd_lnx.o)
 .debug_info    0x00000000000c3245      0xc7e /opt/miyoo/lib/gcc/arm-miyoo-linux-uclibcgnueabi/7.3.0/libgcc.a(_popcountsi2.o)
 .debug_info    0x00000000000c3ec3      0xd15 /opt/miyoo/lib/gcc/arm-miyoo-linux-uclibcgnueabi/7.3.0/libgcc.a(_udivmoddi4.o)

.debug_abbrev   0x0000000000000000    0x142c0
 *(.debug_abbrev)
 .debug_abbrev  0x0000000000000000       0xbb platform/opendingux/inputmap.o
 .debug_abbrev  0x00000000000000bb      0x4ab platform/linux/emu.o
 .debug_abbrev  0x0000000000000566       0xd0 platform/linux/blit.o
 .debug_abbrev  0x0000000000000636      0x302 platform/common/plat_sdl.o
 .debug_abbrev  0x0000000000000938      0x36a platform/libpicofe/plat_sdl.o
 .debug_abbrev  0x0000000000000ca2      0x3e6 platform/libpicofe/in_sdl.o
 .debug_abbrev  0x0000000000001088       0xeb platform/libpicofe/plat_dummy.o
 .debug_abbrev  0x0000000000001173      0x24e platform/common/main.o
 .debug_abbrev  0x00000000000013c1      0x763 platform/common/emu.o
 .debug_abbrev  0x0000000000001b24      0x83e platform/common/menu_pico.o
 .debug_abbrev  0x0000000000002362      0x47d platform/common/config_file.o
 .debug_abbrev  0x00000000000027df      0x49d platform/libpicofe/input.o
 .debug_abbrev  0x0000000000002c7c      0x230 platform/libpicofe/readpng.o
 .debug_abbrev  0x0000000000002eac      0x234 platform/libpicofe/fonts.o
 .debug_abbrev  0x00000000000030e0      0x3ba platform/libpicofe/linux/in_evdev.o
 .debug_abbrev  0x000000000000349a      0x29b platform/libpicofe/linux/plat.o
 .debug_abbrev  0x0000000000003735      0x1c5 platform/libpicofe/sndout.o
 .debug_abbrev  0x00000000000038fa      0x262 platform/libpicofe/sndout_sdl.o
 .debug_abbrev  0x0000000000003b5c       0x14 platform/libpicofe/arm_linux.o
 .debug_abbrev  0x0000000000003b70      0x479 platform/common/mp3.o
 .debug_abbrev  0x0000000000003fe9      0x12d platform/common/mp3_dummy.o
 .debug_abbrev  0x0000000000004116      0x38d unzip/unzip.o
 .debug_abbrev  0x00000000000044a3       0x14 pico/draw_arm.o
 .debug_abbrev  0x00000000000044b7       0x14 pico/draw2_arm.o
 .debug_abbrev  0x00000000000044cb       0x14 pico/memory_arm.o
 .debug_abbrev  0x00000000000044df       0x14 pico/sound/ym2612_arm.o
 .debug_abbrev  0x00000000000044f3       0x14 pico/misc_arm.o
 .debug_abbrev  0x0000000000004507       0x14 pico/cd/misc_arm.o
 .debug_abbrev  0x000000000000451b       0x14 pico/cd/memory_arm.o
 .debug_abbrev  0x000000000000452f       0x14 pico/sound/mix_arm.o
 .debug_abbrev  0x0000000000004543      0x591 pico/pico.o
 .debug_abbrev  0x0000000000004ad4      0x672 pico/cart.o
 .debug_abbrev  0x0000000000005146      0x6ae pico/memory.o
 .debug_abbrev  0x00000000000057f4      0x5fa pico/state.o
 .debug_abbrev  0x0000000000005dee      0x4a3 pico/sek.o
 .debug_abbrev  0x0000000000006291      0x442 pico/z80if.o
 .debug_abbrev  0x00000000000066d3      0x5f1 pico/videoport.o
 .debug_abbrev  0x0000000000006cc4      0x414 pico/draw2.o
 .debug_abbrev  0x00000000000070d8      0x5e1 pico/draw.o
 .debug_abbrev  0x00000000000076b9      0x503 pico/mode4.o
 .debug_abbrev  0x0000000000007bbc      0x2c9 pico/misc.o
 .debug_abbrev  0x0000000000007e85      0x43d pico/eeprom.o
 .debug_abbrev  0x00000000000082c2      0x4a6 pico/patch.o
 .debug_abbrev  0x0000000000008768      0x48b pico/debug.o
 .debug_abbrev  0x0000000000008bf3      0x4e4 pico/media.o
 .debug_abbrev  0x00000000000090d7      0x4cb pico/sms.o
 .debug_abbrev  0x00000000000095a2      0x606 pico/cd/mcd.o
 .debug_abbrev  0x0000000000009ba8      0x55b pico/cd/memory.o
 .debug_abbrev  0x000000000000a103      0x40a pico/cd/sek.o
 .debug_abbrev  0x000000000000a50d      0x48b pico/cd/cdc.o
 .debug_abbrev  0x000000000000a998      0x4c8 pico/cd/cdd.o
 .debug_abbrev  0x000000000000ae60      0x454 pico/cd/cd_image.o
 .debug_abbrev  0x000000000000b2b4      0x4d3 pico/cd/cue.o
 .debug_abbrev  0x000000000000b787      0x499 pico/cd/gfx.o
 .debug_abbrev  0x000000000000bc20      0x3a4 pico/cd/gfx_dma.o
 .debug_abbrev  0x000000000000bfc4      0x2c9 pico/cd/misc.o
 .debug_abbrev  0x000000000000c28d      0x3a2 pico/cd/pcm.o
 .debug_abbrev  0x000000000000c62f      0x66b pico/32x/32x.o
 .debug_abbrev  0x000000000000cc9a      0x64d pico/32x/memory.o
 .debug_abbrev  0x000000000000d2e7      0x4a7 pico/32x/draw.o
 .debug_abbrev  0x000000000000d78e      0x597 pico/32x/sh2soc.o
 .debug_abbrev  0x000000000000dd25      0x4de pico/32x/pwm.o
 .debug_abbrev  0x000000000000e203      0x397 pico/pico/pico.o
 .debug_abbrev  0x000000000000e59a      0x38f pico/pico/memory.o
 .debug_abbrev  0x000000000000e929      0x3bf pico/pico/xpcm.o
 .debug_abbrev  0x000000000000ece8      0x5d6 pico/carthw/carthw.o
 .debug_abbrev  0x000000000000f2be      0x370 pico/carthw/eeprom_spi.o
 .debug_abbrev  0x000000000000f62e      0x3e2 pico/carthw/svp/svp.o
 .debug_abbrev  0x000000000000fa10      0x386 pico/carthw/svp/memory.o
 .debug_abbrev  0x000000000000fd96      0x506 pico/carthw/svp/ssp16.o
 .debug_abbrev  0x000000000001029c       0x14 pico/carthw/svp/stub_arm.o
 .debug_abbrev  0x00000000000102b0      0x66d pico/carthw/svp/compiler.o
 .debug_abbrev  0x000000000001091d      0x536 pico/sound/sound.o
 .debug_abbrev  0x0000000000010e53      0x1e3 pico/sound/sn76496.o
 .debug_abbrev  0x0000000000011036      0x42d pico/sound/ym2612.o
 .debug_abbrev  0x0000000000011463       0x14 cpu/DrZ80/drz80.o
 .debug_abbrev  0x0000000000011477      0x38b cpu/drc/cmn.o
 .debug_abbrev  0x0000000000011802      0x1b7 cpu/sh2/sh2.o
 .debug_abbrev  0x00000000000119b9      0x65b cpu/sh2/compiler.o
 .debug_abbrev  0x0000000000012014      0x353 cpu/sh2/mame/sh2pico.o
 .debug_abbrev  0x0000000000012367      0x1f2 /opt/miyoo/lib/gcc/arm-miyoo-linux-uclibcgnueabi/7.3.0/libgcov.a(_gcov_merge_add.o)
 .debug_abbrev  0x0000000000012559      0x22e /opt/miyoo/lib/gcc/arm-miyoo-linux-uclibcgnueabi/7.3.0/libgcov.a(_gcov_merge_single.o)
 .debug_abbrev  0x0000000000012787      0x1f2 /opt/miyoo/lib/gcc/arm-miyoo-linux-uclibcgnueabi/7.3.0/libgcov.a(_gcov_merge_ior.o)
 .debug_abbrev  0x0000000000012979      0x210 /opt/miyoo/lib/gcc/arm-miyoo-linux-uclibcgnueabi/7.3.0/libgcov.a(_gcov_merge_time_profile.o)
 .debug_abbrev  0x0000000000012b89      0x1ca /opt/miyoo/lib/gcc/arm-miyoo-linux-uclibcgnueabi/7.3.0/libgcov.a(_gcov_interval_profiler.o)
 .debug_abbrev  0x0000000000012d53      0x1bb /opt/miyoo/lib/gcc/arm-miyoo-linux-uclibcgnueabi/7.3.0/libgcov.a(_gcov_pow2_profiler.o)
 .debug_abbrev  0x0000000000012f0e      0x220 /opt/miyoo/lib/gcc/arm-miyoo-linux-uclibcgnueabi/7.3.0/libgcov.a(_gcov_one_value_profiler.o)
 .debug_abbrev  0x000000000001312e      0x1bb /opt/miyoo/lib/gcc/arm-miyoo-linux-uclibcgnueabi/7.3.0/libgcov.a(_gcov_average_profiler.o)
 .debug_abbrev  0x00000000000132e9      0x1ac /opt/miyoo/lib/gcc/arm-miyoo-linux-uclibcgnueabi/7.3.0/libgcov.a(_gcov_ior_profiler.o)
 .debug_abbrev  0x0000000000013495      0x23a /opt/miyoo/lib/gcc/arm-miyoo-linux-uclibcgnueabi/7.3.0/libgcov.a(_gcov_indirect_call_profiler_v2.o)
 .debug_abbrev  0x00000000000136cf      0x1a3 /opt/miyoo/lib/gcc/arm-miyoo-linux-uclibcgnueabi/7.3.0/libgcov.a(_gcov_time_profiler.o)
 .debug_abbrev  0x0000000000013872      0x628 /opt/miyoo/lib/gcc/arm-miyoo-linux-uclibcgnueabi/7.3.0/libgcov.a(_gcov.o)
 .debug_abbrev  0x0000000000013e9a       0x14 /opt/miyoo/lib/gcc/arm-miyoo-linux-uclibcgnueabi/7.3.0/libgcc.a(_udivsi3.o)
 .debug_abbrev  0x0000000000013eae       0x14 /opt/miyoo/lib/gcc/arm-miyoo-linux-uclibcgnueabi/7.3.0/libgcc.a(_divsi3.o)
 .debug_abbrev  0x0000000000013ec2       0x14 /opt/miyoo/lib/gcc/arm-miyoo-linux-uclibcgnueabi/7.3.0/libgcc.a(_arm_addsubdf3.o)
 .debug_abbrev  0x0000000000013ed6       0x14 /opt/miyoo/lib/gcc/arm-miyoo-linux-uclibcgnueabi/7.3.0/libgcc.a(_arm_muldivdf3.o)
 .debug_abbrev  0x0000000000013eea       0x14 /opt/miyoo/lib/gcc/arm-miyoo-linux-uclibcgnueabi/7.3.0/libgcc.a(_arm_cmpdf2.o)
 .debug_abbrev  0x0000000000013efe       0x14 /opt/miyoo/lib/gcc/arm-miyoo-linux-uclibcgnueabi/7.3.0/libgcc.a(_arm_fixdfsi.o)
 .debug_abbrev  0x0000000000013f12       0x14 /opt/miyoo/lib/gcc/arm-miyoo-linux-uclibcgnueabi/7.3.0/libgcc.a(_arm_fixunsdfsi.o)
 .debug_abbrev  0x0000000000013f26       0x14 /opt/miyoo/lib/gcc/arm-miyoo-linux-uclibcgnueabi/7.3.0/libgcc.a(_arm_truncdfsf2.o)
 .debug_abbrev  0x0000000000013f3a       0x14 /opt/miyoo/lib/gcc/arm-miyoo-linux-uclibcgnueabi/7.3.0/libgcc.a(_arm_addsubsf3.o)
 .debug_abbrev  0x0000000000013f4e       0x14 /opt/miyoo/lib/gcc/arm-miyoo-linux-uclibcgnueabi/7.3.0/libgcc.a(_arm_muldivsf3.o)
 .debug_abbrev  0x0000000000013f62       0x14 /opt/miyoo/lib/gcc/arm-miyoo-linux-uclibcgnueabi/7.3.0/libgcc.a(_arm_fixsfsi.o)
 .debug_abbrev  0x0000000000013f76       0x14 /opt/miyoo/lib/gcc/arm-miyoo-linux-uclibcgnueabi/7.3.0/libgcc.a(_aeabi_ldivmod.o)
 .debug_abbrev  0x0000000000013f8a       0x14 /opt/miyoo/lib/gcc/arm-miyoo-linux-uclibcgnueabi/7.3.0/libgcc.a(_dvmd_lnx.o)
 .debug_abbrev  0x0000000000013f9e      0x181 /opt/miyoo/lib/gcc/arm-miyoo-linux-uclibcgnueabi/7.3.0/libgcc.a(_popcountsi2.o)
 .debug_abbrev  0x000000000001411f      0x1a1 /opt/miyoo/lib/gcc/arm-miyoo-linux-uclibcgnueabi/7.3.0/libgcc.a(_udivmoddi4.o)

.debug_line     0x0000000000000000    0x21312
 *(.debug_line .debug_line.* .debug_line_end)
 .debug_line    0x0000000000000000       0xbc platform/opendingux/inputmap.o
 .debug_line    0x00000000000000bc      0x3b3 platform/linux/emu.o
 .debug_line    0x000000000000046f       0xc5 platform/linux/blit.o
 .debug_line    0x0000000000000534      0x545 platform/common/plat_sdl.o
 .debug_line    0x0000000000000a79      0x480 platform/libpicofe/plat_sdl.o
 .debug_line    0x0000000000000ef9      0x48c platform/libpicofe/in_sdl.o
 .debug_line    0x0000000000001385       0x66 platform/libpicofe/plat_dummy.o
 .debug_line    0x00000000000013eb      0x27b platform/common/main.o
 .debug_line    0x0000000000001666     0x1015 platform/common/emu.o
 .debug_line    0x000000000000267b     0x1cdf platform/common/menu_pico.o
 .debug_line    0x000000000000435a      0x53f platform/common/config_file.o
 .debug_line    0x0000000000004899      0x884 platform/libpicofe/input.o
 .debug_line    0x000000000000511d      0x3ce platform/libpicofe/readpng.o
 .debug_line    0x00000000000054eb      0x285 platform/libpicofe/fonts.o
 .debug_line    0x0000000000005770      0x5e7 platform/libpicofe/linux/in_evdev.o
 .debug_line    0x0000000000005d57      0x392 platform/libpicofe/linux/plat.o
 .debug_line    0x00000000000060e9      0x1b8 platform/libpicofe/sndout.o
 .debug_line    0x00000000000062a1      0x2f9 platform/libpicofe/sndout_sdl.o
 .debug_line    0x000000000000659a       0x52 platform/libpicofe/arm_linux.o
 .debug_line    0x00000000000065ec      0x32e platform/common/mp3.o
 .debug_line    0x000000000000691a      0x161 platform/common/mp3_dummy.o
 .debug_line    0x0000000000006a7b      0x4f8 unzip/unzip.o
 .debug_line    0x0000000000006f73      0x42d pico/draw_arm.o
 .debug_line    0x00000000000073a0      0x1d5 pico/draw2_arm.o
 .debug_line    0x0000000000007575       0xda pico/memory_arm.o
 .debug_line    0x000000000000764f       0xe1 pico/sound/ym2612_arm.o
 .debug_line    0x0000000000007730       0x7b pico/misc_arm.o
 .debug_line    0x00000000000077ab       0x63 pico/cd/misc_arm.o
 .debug_line    0x000000000000780e      0x1d7 pico/cd/memory_arm.o
 .debug_line    0x00000000000079e5       0xf6 pico/sound/mix_arm.o
 .debug_line    0x0000000000007adb      0x6a7 pico/pico.o
 .debug_line    0x0000000000008182      0xa9c pico/cart.o
 .debug_line    0x0000000000008c1e      0xb9d pico/memory.o
 .debug_line    0x00000000000097bb     0x10ae pico/state.o
 .debug_line    0x000000000000a869      0x401 pico/sek.o
 .debug_line    0x000000000000ac6a      0x2f8 pico/z80if.o
 .debug_line    0x000000000000af62      0x5a8 pico/videoport.o
 .debug_line    0x000000000000b50a      0x383 pico/draw2.o
 .debug_line    0x000000000000b88d      0xd0d pico/draw.o
 .debug_line    0x000000000000c59a      0x3f5 pico/mode4.o
 .debug_line    0x000000000000c98f      0x1d2 pico/misc.o
 .debug_line    0x000000000000cb61      0x3e8 pico/eeprom.o
 .debug_line    0x000000000000cf49      0x4fc pico/patch.o
 .debug_line    0x000000000000d445      0x73e pico/debug.o
 .debug_line    0x000000000000db83      0x3fd pico/media.o
 .debug_line    0x000000000000df80      0x451 pico/sms.o
 .debug_line    0x000000000000e3d1      0x7e2 pico/cd/mcd.o
 .debug_line    0x000000000000ebb3      0x6ee pico/cd/memory.o
 .debug_line    0x000000000000f2a1      0x26b pico/cd/sek.o
 .debug_line    0x000000000000f50c      0x51d pico/cd/cdc.o
 .debug_line    0x000000000000fa29      0x6e2 pico/cd/cdd.o
 .debug_line    0x000000000001010b      0x3d2 pico/cd/cd_image.o
 .debug_line    0x00000000000104dd      0x512 pico/cd/cue.o
 .debug_line    0x00000000000109ef      0x427 pico/cd/gfx.o
 .debug_line    0x0000000000010e16      0x2fd pico/cd/gfx_dma.o
 .debug_line    0x0000000000011113      0x1f8 pico/cd/misc.o
 .debug_line    0x000000000001130b      0x33d pico/cd/pcm.o
 .debug_line    0x0000000000011648      0x950 pico/32x/32x.o
 .debug_line    0x0000000000011f98      0xe09 pico/32x/memory.o
 .debug_line    0x0000000000012da1      0x60b pico/32x/draw.o
 .debug_line    0x00000000000133ac      0x4dd pico/32x/sh2soc.o
 .debug_line    0x0000000000013889      0x46d pico/32x/pwm.o
 .debug_line    0x0000000000013cf6      0x295 pico/pico/pico.o
 .debug_line    0x0000000000013f8b      0x2a9 pico/pico/memory.o
 .debug_line    0x0000000000014234      0x32d pico/pico/xpcm.o
 .debug_line    0x0000000000014561      0x6ec pico/carthw/carthw.o
 .debug_line    0x0000000000014c4d      0x32c pico/carthw/eeprom_spi.o
 .debug_line    0x0000000000014f79      0x2d7 pico/carthw/svp/svp.o
 .debug_line    0x0000000000015250      0x2da pico/carthw/svp/memory.o
 .debug_line    0x000000000001552a      0xf5c pico/carthw/svp/ssp16.o
 .debug_line    0x0000000000016486      0x1ab pico/carthw/svp/stub_arm.o
 .debug_line    0x0000000000016631     0x1624 pico/carthw/svp/compiler.o
 .debug_line    0x0000000000017c55      0x5ed pico/sound/sound.o
 .debug_line    0x0000000000018242      0x23f pico/sound/sn76496.o
 .debug_line    0x0000000000018481     0x11e4 pico/sound/ym2612.o
 .debug_line    0x0000000000019665      0x9bc cpu/DrZ80/drz80.o
 .debug_line    0x000000000001a021      0x238 cpu/drc/cmn.o
 .debug_line    0x000000000001a259       0xdb cpu/sh2/sh2.o
 .debug_line    0x000000000001a334     0x2716 cpu/sh2/compiler.o
 .debug_line    0x000000000001ca4a     0x16e0 cpu/sh2/mame/sh2pico.o
 .debug_line    0x000000000001e12a      0x279 /opt/miyoo/lib/gcc/arm-miyoo-linux-uclibcgnueabi/7.3.0/libgcov.a(_gcov_merge_add.o)
 .debug_line    0x000000000001e3a3      0x29b /opt/miyoo/lib/gcc/arm-miyoo-linux-uclibcgnueabi/7.3.0/libgcov.a(_gcov_merge_single.o)
 .debug_line    0x000000000001e63e      0x279 /opt/miyoo/lib/gcc/arm-miyoo-linux-uclibcgnueabi/7.3.0/libgcov.a(_gcov_merge_ior.o)
 .debug_line    0x000000000001e8b7      0x27d /opt/miyoo/lib/gcc/arm-miyoo-linux-uclibcgnueabi/7.3.0/libgcov.a(_gcov_merge_time_profile.o)
 .debug_line    0x000000000001eb34      0x246 /opt/miyoo/lib/gcc/arm-miyoo-linux-uclibcgnueabi/7.3.0/libgcov.a(_gcov_interval_profiler.o)
 .debug_line    0x000000000001ed7a      0x249 /opt/miyoo/lib/gcc/arm-miyoo-linux-uclibcgnueabi/7.3.0/libgcov.a(_gcov_pow2_profiler.o)
 .debug_line    0x000000000001efc3      0x24e /opt/miyoo/lib/gcc/arm-miyoo-linux-uclibcgnueabi/7.3.0/libgcov.a(_gcov_one_value_profiler.o)
 .debug_line    0x000000000001f211      0x242 /opt/miyoo/lib/gcc/arm-miyoo-linux-uclibcgnueabi/7.3.0/libgcov.a(_gcov_average_profiler.o)
 .debug_line    0x000000000001f453      0x23f /opt/miyoo/lib/gcc/arm-miyoo-linux-uclibcgnueabi/7.3.0/libgcov.a(_gcov_ior_profiler.o)
 .debug_line    0x000000000001f692      0x27c /opt/miyoo/lib/gcc/arm-miyoo-linux-uclibcgnueabi/7.3.0/libgcov.a(_gcov_indirect_call_profiler_v2.o)
 .debug_line    0x000000000001f90e      0x251 /opt/miyoo/lib/gcc/arm-miyoo-linux-uclibcgnueabi/7.3.0/libgcov.a(_gcov_time_profiler.o)
 .debug_line    0x000000000001fb5f      0x9fd /opt/miyoo/lib/gcc/arm-miyoo-linux-uclibcgnueabi/7.3.0/libgcov.a(_gcov.o)
 .debug_line    0x000000000002055c       0x73 /opt/miyoo/lib/gcc/arm-miyoo-linux-uclibcgnueabi/7.3.0/libgcc.a(_udivsi3.o)
 .debug_line    0x00000000000205cf       0x7f /opt/miyoo/lib/gcc/arm-miyoo-linux-uclibcgnueabi/7.3.0/libgcc.a(_divsi3.o)
 .debug_line    0x000000000002064e      0x159 /opt/miyoo/lib/gcc/arm-miyoo-linux-uclibcgnueabi/7.3.0/libgcc.a(_arm_addsubdf3.o)
 .debug_line    0x00000000000207a7      0x178 /opt/miyoo/lib/gcc/arm-miyoo-linux-uclibcgnueabi/7.3.0/libgcc.a(_arm_muldivdf3.o)
 .debug_line    0x000000000002091f       0xa8 /opt/miyoo/lib/gcc/arm-miyoo-linux-uclibcgnueabi/7.3.0/libgcc.a(_arm_cmpdf2.o)
 .debug_line    0x00000000000209c7       0x6e /opt/miyoo/lib/gcc/arm-miyoo-linux-uclibcgnueabi/7.3.0/libgcc.a(_arm_fixdfsi.o)
 .debug_line    0x0000000000020a35       0x6c /opt/miyoo/lib/gcc/arm-miyoo-linux-uclibcgnueabi/7.3.0/libgcc.a(_arm_fixunsdfsi.o)
 .debug_line    0x0000000000020aa1       0x7f /opt/miyoo/lib/gcc/arm-miyoo-linux-uclibcgnueabi/7.3.0/libgcc.a(_arm_truncdfsf2.o)
 .debug_line    0x0000000000020b20       0xf6 /opt/miyoo/lib/gcc/arm-miyoo-linux-uclibcgnueabi/7.3.0/libgcc.a(_arm_addsubsf3.o)
 .debug_line    0x0000000000020c16      0x119 /opt/miyoo/lib/gcc/arm-miyoo-linux-uclibcgnueabi/7.3.0/libgcc.a(_arm_muldivsf3.o)
 .debug_line    0x0000000000020d2f       0x6e /opt/miyoo/lib/gcc/arm-miyoo-linux-uclibcgnueabi/7.3.0/libgcc.a(_arm_fixsfsi.o)
 .debug_line    0x0000000000020d9d       0x75 /opt/miyoo/lib/gcc/arm-miyoo-linux-uclibcgnueabi/7.3.0/libgcc.a(_aeabi_ldivmod.o)
 .debug_line    0x0000000000020e12       0x5c /opt/miyoo/lib/gcc/arm-miyoo-linux-uclibcgnueabi/7.3.0/libgcc.a(_dvmd_lnx.o)
 .debug_line    0x0000000000020e6e      0x23d /opt/miyoo/lib/gcc/arm-miyoo-linux-uclibcgnueabi/7.3.0/libgcc.a(_popcountsi2.o)
 .debug_line    0x00000000000210ab      0x267 /opt/miyoo/lib/gcc/arm-miyoo-linux-uclibcgnueabi/7.3.0/libgcc.a(_udivmoddi4.o)

.debug_frame    0x0000000000000000     0xaac8
 *(.debug_frame)
 .debug_frame   0x0000000000000000      0x274 platform/linux/emu.o
 .debug_frame   0x0000000000000274       0xfc platform/linux/blit.o
 .debug_frame   0x0000000000000370      0x204 platform/common/plat_sdl.o
 .debug_frame   0x0000000000000574      0x108 platform/libpicofe/plat_sdl.o
 .debug_frame   0x000000000000067c      0x1a8 platform/libpicofe/in_sdl.o
 .debug_frame   0x0000000000000824       0x90 platform/libpicofe/plat_dummy.o
 .debug_frame   0x00000000000008b4       0x80 platform/common/main.o
 .debug_frame   0x0000000000000934      0x770 platform/common/emu.o
 .debug_frame   0x00000000000010a4      0x9f0 platform/common/menu_pico.o
 .debug_frame   0x0000000000001a94      0x164 platform/common/config_file.o
 .debug_frame   0x0000000000001bf8      0x62c platform/libpicofe/input.o
 .debug_frame   0x0000000000002224       0x9c platform/libpicofe/readpng.o
 .debug_frame   0x00000000000022c0       0xc8 platform/libpicofe/fonts.o
 .debug_frame   0x0000000000002388      0x23c platform/libpicofe/linux/in_evdev.o
 .debug_frame   0x00000000000025c4      0x280 platform/libpicofe/linux/plat.o
 .debug_frame   0x0000000000002844      0x118 platform/libpicofe/sndout.o
 .debug_frame   0x000000000000295c      0x13c platform/libpicofe/sndout_sdl.o
 .debug_frame   0x0000000000002a98      0x128 platform/common/mp3.o
 .debug_frame   0x0000000000002bc0       0x70 platform/common/mp3_dummy.o
 .debug_frame   0x0000000000002c30      0x19c unzip/unzip.o
 .debug_frame   0x0000000000002dcc      0x238 pico/pico.o
 .debug_frame   0x0000000000003004      0x2e4 pico/cart.o
 .debug_frame   0x00000000000032e8      0x7e0 pico/memory.o
 .debug_frame   0x0000000000003ac8      0x1f4 pico/state.o
 .debug_frame   0x0000000000003cbc      0x1c8 pico/sek.o
 .debug_frame   0x0000000000003e84      0x144 pico/z80if.o
 .debug_frame   0x0000000000003fc8      0x21c pico/videoport.o
 .debug_frame   0x00000000000041e4       0xb8 pico/draw2.o
 .debug_frame   0x000000000000429c      0x46c pico/draw.o
 .debug_frame   0x0000000000004708      0x17c pico/mode4.o
 .debug_frame   0x0000000000004884       0xe8 pico/eeprom.o
 .debug_frame   0x000000000000496c      0x1ec pico/patch.o
 .debug_frame   0x0000000000004b58      0x1d0 pico/debug.o
 .debug_frame   0x0000000000004d28       0xc4 pico/media.o
 .debug_frame   0x0000000000004dec      0x1d4 pico/sms.o
 .debug_frame   0x0000000000004fc0      0x354 pico/cd/mcd.o
 .debug_frame   0x0000000000005314      0x474 pico/cd/memory.o
 .debug_frame   0x0000000000005788       0xc8 pico/cd/sek.o
 .debug_frame   0x0000000000005850      0x1a8 pico/cd/cdc.o
 .debug_frame   0x00000000000059f8      0x1e0 pico/cd/cdd.o
 .debug_frame   0x0000000000005bd8       0xa8 pico/cd/cd_image.o
 .debug_frame   0x0000000000005c80       0xcc pico/cd/cue.o
 .debug_frame   0x0000000000005d4c      0x110 pico/cd/gfx.o
 .debug_frame   0x0000000000005e5c       0xbc pico/cd/gfx_dma.o
 .debug_frame   0x0000000000005f18       0xd4 pico/cd/pcm.o
 .debug_frame   0x0000000000005fec      0x3e0 pico/32x/32x.o
 .debug_frame   0x00000000000063cc      0xaf4 pico/32x/memory.o
 .debug_frame   0x0000000000006ec0      0x348 pico/32x/draw.o
 .debug_frame   0x0000000000007208      0x2d0 pico/32x/sh2soc.o
 .debug_frame   0x00000000000074d8      0x1e0 pico/32x/pwm.o
 .debug_frame   0x00000000000076b8       0xb4 pico/pico/pico.o
 .debug_frame   0x000000000000776c       0xdc pico/pico/memory.o
 .debug_frame   0x0000000000007848       0xb4 pico/pico/xpcm.o
 .debug_frame   0x00000000000078fc      0x6bc pico/carthw/carthw.o
 .debug_frame   0x0000000000007fb8       0x90 pico/carthw/eeprom_spi.o
 .debug_frame   0x0000000000008048       0xf8 pico/carthw/svp/svp.o
 .debug_frame   0x0000000000008140      0x128 pico/carthw/svp/memory.o
 .debug_frame   0x0000000000008268      0x508 pico/carthw/svp/ssp16.o
 .debug_frame   0x0000000000008770      0x7f4 pico/carthw/svp/compiler.o
 .debug_frame   0x0000000000008f64      0x204 pico/sound/sound.o
 .debug_frame   0x0000000000009168       0xb0 pico/sound/sn76496.o
 .debug_frame   0x0000000000009218      0x250 pico/sound/ym2612.o
 .debug_frame   0x0000000000009468       0x88 cpu/drc/cmn.o
 .debug_frame   0x00000000000094f0      0x15c cpu/sh2/sh2.o
 .debug_frame   0x000000000000964c      0x6fc cpu/sh2/compiler.o
 .debug_frame   0x0000000000009d48      0x19c cpu/sh2/mame/sh2pico.o
 .debug_frame   0x0000000000009ee4       0x40 /opt/miyoo/lib/gcc/arm-miyoo-linux-uclibcgnueabi/7.3.0/libgcov.a(_gcov_merge_add.o)
 .debug_frame   0x0000000000009f24       0x4c /opt/miyoo/lib/gcc/arm-miyoo-linux-uclibcgnueabi/7.3.0/libgcov.a(_gcov_merge_single.o)
 .debug_frame   0x0000000000009f70       0x40 /opt/miyoo/lib/gcc/arm-miyoo-linux-uclibcgnueabi/7.3.0/libgcov.a(_gcov_merge_ior.o)
 .debug_frame   0x0000000000009fb0       0x40 /opt/miyoo/lib/gcc/arm-miyoo-linux-uclibcgnueabi/7.3.0/libgcov.a(_gcov_merge_time_profile.o)
 .debug_frame   0x0000000000009ff0       0x30 /opt/miyoo/lib/gcc/arm-miyoo-linux-uclibcgnueabi/7.3.0/libgcov.a(_gcov_interval_profiler.o)
 .debug_frame   0x000000000000a020       0x30 /opt/miyoo/lib/gcc/arm-miyoo-linux-uclibcgnueabi/7.3.0/libgcov.a(_gcov_pow2_profiler.o)
 .debug_frame   0x000000000000a050       0x44 /opt/miyoo/lib/gcc/arm-miyoo-linux-uclibcgnueabi/7.3.0/libgcov.a(_gcov_one_value_profiler.o)
 .debug_frame   0x000000000000a094       0x30 /opt/miyoo/lib/gcc/arm-miyoo-linux-uclibcgnueabi/7.3.0/libgcov.a(_gcov_average_profiler.o)
 .debug_frame   0x000000000000a0c4       0x30 /opt/miyoo/lib/gcc/arm-miyoo-linux-uclibcgnueabi/7.3.0/libgcov.a(_gcov_ior_profiler.o)
 .debug_frame   0x000000000000a0f4       0x58 /opt/miyoo/lib/gcc/arm-miyoo-linux-uclibcgnueabi/7.3.0/libgcov.a(_gcov_indirect_call_profiler_v2.o)
 .debug_frame   0x000000000000a14c      0x5a0 /opt/miyoo/lib/gcc/arm-miyoo-linux-uclibcgnueabi/7.3.0/libgcov.a(_gcov.o)
 .debug_frame   0x000000000000a6ec       0x20 /opt/miyoo/lib/gcc/arm-miyoo-linux-uclibcgnueabi/7.3.0/libgcc.a(_udivsi3.o)
 .debug_frame   0x000000000000a70c       0x20 /opt/miyoo/lib/gcc/arm-miyoo-linux-uclibcgnueabi/7.3.0/libgcc.a(_divsi3.o)
 .debug_frame   0x000000000000a72c       0xac /opt/miyoo/lib/gcc/arm-miyoo-linux-uclibcgnueabi/7.3.0/libgcc.a(_arm_addsubdf3.o)
 .debug_frame   0x000000000000a7d8       0x50 /opt/miyoo/lib/gcc/arm-miyoo-linux-uclibcgnueabi/7.3.0/libgcc.a(_arm_muldivdf3.o)
 .debug_frame   0x000000000000a828       0xc4 /opt/miyoo/lib/gcc/arm-miyoo-linux-uclibcgnueabi/7.3.0/libgcc.a(_arm_cmpdf2.o)
 .debug_frame   0x000000000000a8ec       0x24 /opt/miyoo/lib/gcc/arm-miyoo-linux-uclibcgnueabi/7.3.0/libgcc.a(_arm_fixdfsi.o)
 .debug_frame   0x000000000000a910       0x24 /opt/miyoo/lib/gcc/arm-miyoo-linux-uclibcgnueabi/7.3.0/libgcc.a(_arm_fixunsdfsi.o)
 .debug_frame   0x000000000000a934       0x24 /opt/miyoo/lib/gcc/arm-miyoo-linux-uclibcgnueabi/7.3.0/libgcc.a(_arm_truncdfsf2.o)
 .debug_frame   0x000000000000a958       0x4c /opt/miyoo/lib/gcc/arm-miyoo-linux-uclibcgnueabi/7.3.0/libgcc.a(_arm_addsubsf3.o)
 .debug_frame   0x000000000000a9a4       0x38 /opt/miyoo/lib/gcc/arm-miyoo-linux-uclibcgnueabi/7.3.0/libgcc.a(_arm_muldivsf3.o)
 .debug_frame   0x000000000000a9dc       0x24 /opt/miyoo/lib/gcc/arm-miyoo-linux-uclibcgnueabi/7.3.0/libgcc.a(_arm_fixsfsi.o)
 .debug_frame   0x000000000000aa00       0x44 /opt/miyoo/lib/gcc/arm-miyoo-linux-uclibcgnueabi/7.3.0/libgcc.a(_aeabi_ldivmod.o)
 .debug_frame   0x000000000000aa44       0x28 /opt/miyoo/lib/gcc/arm-miyoo-linux-uclibcgnueabi/7.3.0/libgcc.a(_dvmd_lnx.o)
 .debug_frame   0x000000000000aa6c       0x20 /opt/miyoo/lib/gcc/arm-miyoo-linux-uclibcgnueabi/7.3.0/libgcc.a(_popcountsi2.o)
 .debug_frame   0x000000000000aa8c       0x3c /opt/miyoo/lib/gcc/arm-miyoo-linux-uclibcgnueabi/7.3.0/libgcc.a(_udivmoddi4.o)

.debug_str      0x0000000000000000     0xe05f
 *(.debug_str)
 .debug_str     0x0000000000000000      0xc7a platform/opendingux/inputmap.o
                                        0xcb8 (size before relaxing)
 .debug_str     0x0000000000000c7a     0x1523 platform/linux/emu.o
                                       0x1899 (size before relaxing)
 .debug_str     0x000000000000219d       0x9d platform/linux/blit.o
                                        0x1c5 (size before relaxing)
 .debug_str     0x000000000000223a      0x6a6 platform/common/plat_sdl.o
                                       0x1a8c (size before relaxing)
 .debug_str     0x00000000000028e0      0x490 platform/libpicofe/plat_sdl.o
                                       0x1908 (size before relaxing)
 .debug_str     0x0000000000002d70      0x3f4 platform/libpicofe/in_sdl.o
                                       0x184b (size before relaxing)
 .debug_str     0x0000000000003164       0x5c platform/libpicofe/plat_dummy.o
                                        0x26f (size before relaxing)
 .debug_str     0x00000000000031c0      0x197 platform/common/main.o
                                        0x8d7 (size before relaxing)
 .debug_str     0x0000000000003357      0xb89 platform/common/emu.o
                                       0x2553 (size before relaxing)
 .debug_str     0x0000000000003ee0     0x13be platform/common/menu_pico.o
                                       0x2eab (size before relaxing)
 .debug_str     0x000000000000529e      0x12e platform/common/config_file.o
                                       0x135c (size before relaxing)
 .debug_str     0x00000000000053cc      0x388 platform/libpicofe/input.o
                                        0xb75 (size before relaxing)
 .debug_str     0x0000000000005754      0x223 platform/libpicofe/readpng.o
                                        0x5da (size before relaxing)
 .debug_str     0x0000000000005977       0x57 platform/libpicofe/fonts.o
                                        0x3aa (size before relaxing)
 .debug_str     0x00000000000059ce      0x2f7 platform/libpicofe/linux/in_evdev.o
                                        0x959 (size before relaxing)
 .debug_str     0x0000000000005cc5      0x11c platform/libpicofe/linux/plat.o
                                        0x738 (size before relaxing)
 .debug_str     0x0000000000005de1       0xc2 platform/libpicofe/sndout.o
                                        0x41e (size before relaxing)
 .debug_str     0x0000000000005ea3      0x11d platform/libpicofe/sndout_sdl.o
                                        0x783 (size before relaxing)
 .debug_str     0x0000000000005fc0       0x2b platform/libpicofe/arm_linux.o
                                         0x4d (size before relaxing)
 .debug_str     0x0000000000005feb      0x11f platform/common/mp3.o
                                       0x1149 (size before relaxing)
 .debug_str     0x000000000000610a       0x27 platform/common/mp3_dummy.o
                                        0x353 (size before relaxing)
 .debug_str     0x0000000000006131      0x405 unzip/unzip.o
                                        0x8d9 (size before relaxing)
 .debug_str     0x0000000000006536       0x10 pico/draw_arm.o
                                         0x3e (size before relaxing)
 .debug_str     0x0000000000006546       0x11 pico/draw2_arm.o
                                         0x3f (size before relaxing)
 .debug_str     0x0000000000006557       0x12 pico/memory_arm.o
                                         0x40 (size before relaxing)
 .debug_str     0x0000000000006569       0x18 pico/sound/ym2612_arm.o
                                         0x46 (size before relaxing)
 .debug_str     0x0000000000006581       0x10 pico/misc_arm.o
                                         0x3e (size before relaxing)
 .debug_str     0x0000000000006591       0x13 pico/cd/misc_arm.o
                                         0x41 (size before relaxing)
 .debug_str     0x00000000000065a4       0x15 pico/cd/memory_arm.o
                                         0x43 (size before relaxing)
 .debug_str     0x00000000000065b9       0x15 pico/sound/mix_arm.o
                                         0x43 (size before relaxing)
 .debug_str     0x00000000000065ce      0x43c pico/pico.o
                                       0x14fc (size before relaxing)
 .debug_str     0x0000000000006a0a      0x426 pico/cart.o
                                       0x19b9 (size before relaxing)
 .debug_str     0x0000000000006e30      0x5e1 pico/memory.o
                                       0x17f3 (size before relaxing)
 .debug_str     0x0000000000007411      0x532 pico/state.o
                                       0x19a0 (size before relaxing)
 .debug_str     0x0000000000007943       0xf6 pico/sek.o
                                       0x1236 (size before relaxing)
 .debug_str     0x0000000000007a39       0x8a pico/z80if.o
                                       0x117d (size before relaxing)
 .debug_str     0x0000000000007ac3       0xea pico/videoport.o
                                       0x144a (size before relaxing)
 .debug_str     0x0000000000007bad      0x1b4 pico/draw2.o
                                       0x1143 (size before relaxing)
 .debug_str     0x0000000000007d61      0x384 pico/draw.o
                                       0x14ce (size before relaxing)
 .debug_str     0x00000000000080e5      0x126 pico/mode4.o
                                       0x11d6 (size before relaxing)
 .debug_str     0x000000000000820b        0xc pico/misc.o
                                        0xfd5 (size before relaxing)
 .debug_str     0x0000000000008217       0x61 pico/eeprom.o
                                       0x1058 (size before relaxing)
 .debug_str     0x0000000000008278       0xa4 pico/patch.o
                                       0x121e (size before relaxing)
 .debug_str     0x000000000000831c       0x6a pico/debug.o
                                       0x15cc (size before relaxing)
 .debug_str     0x0000000000008386      0x147 pico/media.o
                                       0x1520 (size before relaxing)
 .debug_str     0x00000000000084cd       0xac pico/sms.o
                                       0x1237 (size before relaxing)
 .debug_str     0x0000000000008579      0x25e pico/cd/mcd.o
                                       0x170b (size before relaxing)
 .debug_str     0x00000000000087d7      0x2e6 pico/cd/memory.o
                                       0x160c (size before relaxing)
 .debug_str     0x0000000000008abd       0x54 pico/cd/sek.o
                                       0x122a (size before relaxing)
 .debug_str     0x0000000000008b11      0x104 pico/cd/cdc.o
                                       0x13c7 (size before relaxing)
 .debug_str     0x0000000000008c15       0xe6 pico/cd/cdd.o
                                       0x13bd (size before relaxing)
 .debug_str     0x0000000000008cfb       0x93 pico/cd/cd_image.o
                                       0x1379 (size before relaxing)
 .debug_str     0x0000000000008d8e       0xa4 pico/cd/cue.o
                                       0x1197 (size before relaxing)
 .debug_str     0x0000000000008e32      0x103 pico/cd/gfx.o
                                       0x135a (size before relaxing)
 .debug_str     0x0000000000008f35       0x26 pico/cd/gfx_dma.o
                                       0x110d (size before relaxing)
 .debug_str     0x0000000000008f5b        0xf pico/cd/misc.o
                                        0xfd1 (size before relaxing)
 .debug_str     0x0000000000008f6a       0x5d pico/cd/pcm.o
                                       0x11b2 (size before relaxing)
 .debug_str     0x0000000000008fc7      0x330 pico/32x/32x.o
                                       0x1758 (size before relaxing)
 .debug_str     0x00000000000092f7      0x795 pico/32x/memory.o
                                       0x19b9 (size before relaxing)
 .debug_str     0x0000000000009a8c      0x1a9 pico/32x/draw.o
                                       0x127e (size before relaxing)
 .debug_str     0x0000000000009c35      0x172 pico/32x/sh2soc.o
                                       0x1336 (size before relaxing)
 .debug_str     0x0000000000009da7      0x10a pico/32x/pwm.o
                                       0x1203 (size before relaxing)
 .debug_str     0x0000000000009eb1       0xa2 pico/pico/pico.o
                                       0x10b9 (size before relaxing)
 .debug_str     0x0000000000009f53       0x5b pico/pico/memory.o
                                       0x1081 (size before relaxing)
 .debug_str     0x0000000000009fae       0x67 pico/pico/xpcm.o
                                       0x10ba (size before relaxing)
 .debug_str     0x000000000000a015      0x40c pico/carthw/carthw.o
                                       0x1612 (size before relaxing)
 .debug_str     0x000000000000a421       0x71 pico/carthw/eeprom_spi.o
                                       0x108c (size before relaxing)
 .debug_str     0x000000000000a492       0xf1 pico/carthw/svp/svp.o
                                       0x1150 (size before relaxing)
 .debug_str     0x000000000000a583      0x106 pico/carthw/svp/memory.o
                                       0x1110 (size before relaxing)
 .debug_str     0x000000000000a689      0x17d pico/carthw/svp/ssp16.o
                                       0x11ff (size before relaxing)
 .debug_str     0x000000000000a806       0x1b pico/carthw/svp/stub_arm.o
                                         0x49 (size before relaxing)
 .debug_str     0x000000000000a821      0x591 pico/carthw/svp/compiler.o
                                       0x16c3 (size before relaxing)
 .debug_str     0x000000000000adb2      0x128 pico/sound/sound.o
                                       0x161c (size before relaxing)
 .debug_str     0x000000000000aeda       0x9e pico/sound/sn76496.o
                                        0x222 (size before relaxing)
 .debug_str     0x000000000000af78      0x3ee pico/sound/ym2612.o
                                        0x7e7 (size before relaxing)
 .debug_str     0x000000000000b366       0x12 cpu/DrZ80/drz80.o
                                         0x40 (size before relaxing)
 .debug_str     0x000000000000b378       0x39 cpu/drc/cmn.o
                                       0x1076 (size before relaxing)
 .debug_str     0x000000000000b3b1       0x41 cpu/sh2/sh2.o
                                        0x3cc (size before relaxing)
 .debug_str     0x000000000000b3f2      0xa2a cpu/sh2/compiler.o
                                       0x1c98 (size before relaxing)
 .debug_str     0x000000000000be1c      0x3ac cpu/sh2/mame/sh2pico.o
                                        0x76c (size before relaxing)
 .debug_str     0x000000000000c1c8     0x1388 /opt/miyoo/lib/gcc/arm-miyoo-linux-uclibcgnueabi/7.3.0/libgcov.a(_gcov_merge_add.o)
                                       0x16a1 (size before relaxing)
 .debug_str     0x000000000000d550       0x3d /opt/miyoo/lib/gcc/arm-miyoo-linux-uclibcgnueabi/7.3.0/libgcov.a(_gcov_merge_single.o)
                                       0x16db (size before relaxing)
 .debug_str     0x000000000000d58d       0x11 /opt/miyoo/lib/gcc/arm-miyoo-linux-uclibcgnueabi/7.3.0/libgcov.a(_gcov_merge_ior.o)
                                       0x16a8 (size before relaxing)
 .debug_str     0x000000000000d59e       0x1a /opt/miyoo/lib/gcc/arm-miyoo-linux-uclibcgnueabi/7.3.0/libgcov.a(_gcov_merge_time_profile.o)
                                       0x16b7 (size before relaxing)
 .debug_str     0x000000000000d5b8       0x3c /opt/miyoo/lib/gcc/arm-miyoo-linux-uclibcgnueabi/7.3.0/libgcov.a(_gcov_interval_profiler.o)
                                       0x1694 (size before relaxing)
 .debug_str     0x000000000000d5f4       0x15 /opt/miyoo/lib/gcc/arm-miyoo-linux-uclibcgnueabi/7.3.0/libgcov.a(_gcov_pow2_profiler.o)
                                       0x167e (size before relaxing)
 .debug_str     0x000000000000d609       0x2a /opt/miyoo/lib/gcc/arm-miyoo-linux-uclibcgnueabi/7.3.0/libgcov.a(_gcov_one_value_profiler.o)
                                       0x16ad (size before relaxing)
 .debug_str     0x000000000000d633     0x1681 /opt/miyoo/lib/gcc/arm-miyoo-linux-uclibcgnueabi/7.3.0/libgcov.a(_gcov_average_profiler.o)
 .debug_str     0x000000000000d633     0x167d /opt/miyoo/lib/gcc/arm-miyoo-linux-uclibcgnueabi/7.3.0/libgcov.a(_gcov_ior_profiler.o)
 .debug_str     0x000000000000d633      0x10c /opt/miyoo/lib/gcc/arm-miyoo-linux-uclibcgnueabi/7.3.0/libgcov.a(_gcov_indirect_call_profiler_v2.o)
                                       0x17c0 (size before relaxing)
 .debug_str     0x000000000000d73f       0x1d /opt/miyoo/lib/gcc/arm-miyoo-linux-uclibcgnueabi/7.3.0/libgcov.a(_gcov_time_profiler.o)
                                       0x1740 (size before relaxing)
 .debug_str     0x000000000000d75c      0x66d /opt/miyoo/lib/gcc/arm-miyoo-linux-uclibcgnueabi/7.3.0/libgcov.a(_gcov.o)
                                       0x1f63 (size before relaxing)
 .debug_str     0x000000000000ddc9       0x27 /opt/miyoo/lib/gcc/arm-miyoo-linux-uclibcgnueabi/7.3.0/libgcc.a(_udivsi3.o)
                                         0xaa (size before relaxing)
 .debug_str     0x000000000000ddf0       0xaa /opt/miyoo/lib/gcc/arm-miyoo-linux-uclibcgnueabi/7.3.0/libgcc.a(_divsi3.o)
 .debug_str     0x000000000000ddf0       0x28 /opt/miyoo/lib/gcc/arm-miyoo-linux-uclibcgnueabi/7.3.0/libgcc.a(_arm_addsubdf3.o)
                                         0xab (size before relaxing)
 .debug_str     0x000000000000de18       0xab /opt/miyoo/lib/gcc/arm-miyoo-linux-uclibcgnueabi/7.3.0/libgcc.a(_arm_muldivdf3.o)
 .debug_str     0x000000000000de18       0xab /opt/miyoo/lib/gcc/arm-miyoo-linux-uclibcgnueabi/7.3.0/libgcc.a(_arm_cmpdf2.o)
 .debug_str     0x000000000000de18       0xab /opt/miyoo/lib/gcc/arm-miyoo-linux-uclibcgnueabi/7.3.0/libgcc.a(_arm_fixdfsi.o)
 .debug_str     0x000000000000de18       0xab /opt/miyoo/lib/gcc/arm-miyoo-linux-uclibcgnueabi/7.3.0/libgcc.a(_arm_fixunsdfsi.o)
 .debug_str     0x000000000000de18       0xab /opt/miyoo/lib/gcc/arm-miyoo-linux-uclibcgnueabi/7.3.0/libgcc.a(_arm_truncdfsf2.o)
 .debug_str     0x000000000000de18       0x28 /opt/miyoo/lib/gcc/arm-miyoo-linux-uclibcgnueabi/7.3.0/libgcc.a(_arm_addsubsf3.o)
                                         0xab (size before relaxing)
 .debug_str     0x000000000000de40       0xab /opt/miyoo/lib/gcc/arm-miyoo-linux-uclibcgnueabi/7.3.0/libgcc.a(_arm_muldivsf3.o)
 .debug_str     0x000000000000de40       0xab /opt/miyoo/lib/gcc/arm-miyoo-linux-uclibcgnueabi/7.3.0/libgcc.a(_arm_fixsfsi.o)
 .debug_str     0x000000000000de40       0x23 /opt/miyoo/lib/gcc/arm-miyoo-linux-uclibcgnueabi/7.3.0/libgcc.a(_aeabi_ldivmod.o)
                                         0xa6 (size before relaxing)
 .debug_str     0x000000000000de63       0xaa /opt/miyoo/lib/gcc/arm-miyoo-linux-uclibcgnueabi/7.3.0/libgcc.a(_dvmd_lnx.o)
 .debug_str     0x000000000000de63      0x124 /opt/miyoo/lib/gcc/arm-miyoo-linux-uclibcgnueabi/7.3.0/libgcc.a(_popcountsi2.o)
                                       0x15c0 (size before relaxing)
 .debug_str     0x000000000000df87       0xd8 /opt/miyoo/lib/gcc/arm-miyoo-linux-uclibcgnueabi/7.3.0/libgcc.a(_udivmoddi4.o)
                                       0x15d4 (size before relaxing)

.debug_loc      0x0000000000000000    0x63d00
 *(.debug_loc)
 .debug_loc     0x0000000000000000      0x56a platform/linux/emu.o
 .debug_loc     0x000000000000056a      0x654 platform/linux/blit.o
 .debug_loc     0x0000000000000bbe      0x7da platform/common/plat_sdl.o
 .debug_loc     0x0000000000001398      0x3d4 platform/libpicofe/plat_sdl.o
 .debug_loc     0x000000000000176c      0xf98 platform/libpicofe/in_sdl.o
 .debug_loc     0x0000000000002704      0x1b0 platform/common/main.o
 .debug_loc     0x00000000000028b4     0x36c3 platform/common/emu.o
 .debug_loc     0x0000000000005f77     0x9216 platform/common/menu_pico.o
 .debug_loc     0x000000000000f18d     0x1058 platform/common/config_file.o
 .debug_loc     0x00000000000101e5     0x2b34 platform/libpicofe/input.o
 .debug_loc     0x0000000000012d19      0xd12 platform/libpicofe/readpng.o
 .debug_loc     0x0000000000013a2b      0x61a platform/libpicofe/fonts.o
 .debug_loc     0x0000000000014045     0x1643 platform/libpicofe/linux/in_evdev.o
 .debug_loc     0x0000000000015688      0x812 platform/libpicofe/linux/plat.o
 .debug_loc     0x0000000000015e9a       0xad platform/libpicofe/sndout.o
 .debug_loc     0x0000000000015f47      0x403 platform/libpicofe/sndout_sdl.o
 .debug_loc     0x000000000001634a      0x561 platform/common/mp3.o
 .debug_loc     0x00000000000168ab       0xa5 platform/common/mp3_dummy.o
 .debug_loc     0x0000000000016950     0x11d0 unzip/unzip.o
 .debug_loc     0x0000000000017b20      0xb06 pico/pico.o
 .debug_loc     0x0000000000018626     0x2303 pico/cart.o
 .debug_loc     0x000000000001a929     0x45d6 pico/memory.o
 .debug_loc     0x000000000001eeff      0xfae pico/state.o
 .debug_loc     0x000000000001fead      0x4d8 pico/sek.o
 .debug_loc     0x0000000000020385      0x149 pico/z80if.o
 .debug_loc     0x00000000000204ce     0x121c pico/videoport.o
 .debug_loc     0x00000000000216ea      0x883 pico/draw2.o
 .debug_loc     0x0000000000021f6d     0x399a pico/draw.o
 .debug_loc     0x0000000000025907     0x105a pico/mode4.o
 .debug_loc     0x0000000000026961      0x525 pico/eeprom.o
 .debug_loc     0x0000000000026e86      0xe0f pico/patch.o
 .debug_loc     0x0000000000027c95     0x120b pico/debug.o
 .debug_loc     0x0000000000028ea0      0x8b9 pico/media.o
 .debug_loc     0x0000000000029759      0x82d pico/sms.o
 .debug_loc     0x0000000000029f86      0xf13 pico/cd/mcd.o
 .debug_loc     0x000000000002ae99     0x189a pico/cd/memory.o
 .debug_loc     0x000000000002c733      0x1a5 pico/cd/sek.o
 .debug_loc     0x000000000002c8d8      0x960 pico/cd/cdc.o
 .debug_loc     0x000000000002d238      0xabf pico/cd/cdd.o
 .debug_loc     0x000000000002dcf7      0xb18 pico/cd/cd_image.o
 .debug_loc     0x000000000002e80f     0x171d pico/cd/cue.o
 .debug_loc     0x000000000002ff2c      0xdf1 pico/cd/gfx.o
 .debug_loc     0x0000000000030d1d      0x4f7 pico/cd/gfx_dma.o
 .debug_loc     0x0000000000031214      0x6c2 pico/cd/pcm.o
 .debug_loc     0x00000000000318d6     0x1684 pico/32x/32x.o
 .debug_loc     0x0000000000032f5a     0x37cf pico/32x/memory.o
 .debug_loc     0x0000000000036729     0x2c24 pico/32x/draw.o
 .debug_loc     0x000000000003934d     0x10cd pico/32x/sh2soc.o
 .debug_loc     0x000000000003a41a      0xe33 pico/32x/pwm.o
 .debug_loc     0x000000000003b24d       0x1e pico/pico/pico.o
 .debug_loc     0x000000000003b26b      0x227 pico/pico/memory.o
 .debug_loc     0x000000000003b492      0x3e3 pico/pico/xpcm.o
 .debug_loc     0x000000000003b875     0x13b3 pico/carthw/carthw.o
 .debug_loc     0x000000000003cc28       0x60 pico/carthw/eeprom_spi.o
 .debug_loc     0x000000000003cc88      0x103 pico/carthw/svp/svp.o
 .debug_loc     0x000000000003cd8b      0x29d pico/carthw/svp/memory.o
 .debug_loc     0x000000000003d028     0x44df pico/carthw/svp/ssp16.o
 .debug_loc     0x0000000000041507     0x6174 pico/carthw/svp/compiler.o
 .debug_loc     0x000000000004767b      0xe0a pico/sound/sound.o
 .debug_loc     0x0000000000048485      0x412 pico/sound/sn76496.o
 .debug_loc     0x0000000000048897     0x8be8 pico/sound/ym2612.o
 .debug_loc     0x000000000005147f       0x73 cpu/drc/cmn.o
 .debug_loc     0x00000000000514f2      0x2f1 cpu/sh2/sh2.o
 .debug_loc     0x00000000000517e3     0xa0f2 cpu/sh2/compiler.o
 .debug_loc     0x000000000005b8d5     0x6142 cpu/sh2/mame/sh2pico.o
 .debug_loc     0x0000000000061a17       0x54 /opt/miyoo/lib/gcc/arm-miyoo-linux-uclibcgnueabi/7.3.0/libgcov.a(_gcov_merge_add.o)
 .debug_loc     0x0000000000061a6b       0x82 /opt/miyoo/lib/gcc/arm-miyoo-linux-uclibcgnueabi/7.3.0/libgcov.a(_gcov_merge_single.o)
 .debug_loc     0x0000000000061aed       0x54 /opt/miyoo/lib/gcc/arm-miyoo-linux-uclibcgnueabi/7.3.0/libgcov.a(_gcov_merge_ior.o)
 .debug_loc     0x0000000000061b41       0x5b /opt/miyoo/lib/gcc/arm-miyoo-linux-uclibcgnueabi/7.3.0/libgcov.a(_gcov_merge_time_profile.o)
 .debug_loc     0x0000000000061b9c       0x60 /opt/miyoo/lib/gcc/arm-miyoo-linux-uclibcgnueabi/7.3.0/libgcov.a(_gcov_interval_profiler.o)
 .debug_loc     0x0000000000061bfc       0x28 /opt/miyoo/lib/gcc/arm-miyoo-linux-uclibcgnueabi/7.3.0/libgcov.a(_gcov_pow2_profiler.o)
 .debug_loc     0x0000000000061c24       0x60 /opt/miyoo/lib/gcc/arm-miyoo-linux-uclibcgnueabi/7.3.0/libgcov.a(_gcov_one_value_profiler.o)
 .debug_loc     0x0000000000061c84       0x28 /opt/miyoo/lib/gcc/arm-miyoo-linux-uclibcgnueabi/7.3.0/libgcov.a(_gcov_average_profiler.o)
 .debug_loc     0x0000000000061cac       0x8c /opt/miyoo/lib/gcc/arm-miyoo-linux-uclibcgnueabi/7.3.0/libgcov.a(_gcov_indirect_call_profiler_v2.o)
 .debug_loc     0x0000000000061d38     0x1b1b /opt/miyoo/lib/gcc/arm-miyoo-linux-uclibcgnueabi/7.3.0/libgcov.a(_gcov.o)
 .debug_loc     0x0000000000063853       0x74 /opt/miyoo/lib/gcc/arm-miyoo-linux-uclibcgnueabi/7.3.0/libgcc.a(_popcountsi2.o)
 .debug_loc     0x00000000000638c7      0x439 /opt/miyoo/lib/gcc/arm-miyoo-linux-uclibcgnueabi/7.3.0/libgcc.a(_udivmoddi4.o)

.debug_macinfo
 *(.debug_macinfo)

.debug_weaknames
 *(.debug_weaknames)

.debug_funcnames
 *(.debug_funcnames)

.debug_typenames
 *(.debug_typenames)

.debug_varnames
 *(.debug_varnames)

.debug_pubtypes
 *(.debug_pubtypes)

.debug_ranges   0x0000000000000000     0x9958
 *(.debug_ranges)
 .debug_ranges  0x0000000000000000       0x60 platform/linux/emu.o
 .debug_ranges  0x0000000000000060       0x20 platform/libpicofe/plat_sdl.o
 .debug_ranges  0x0000000000000080       0xa8 platform/libpicofe/in_sdl.o
 .debug_ranges  0x0000000000000128       0x18 platform/common/main.o
 .debug_ranges  0x0000000000000140      0x568 platform/common/emu.o
 .debug_ranges  0x00000000000006a8      0xd28 platform/common/menu_pico.o
 .debug_ranges  0x00000000000013d0      0x1d8 platform/common/config_file.o
 .debug_ranges  0x00000000000015a8      0x180 platform/libpicofe/input.o
 .debug_ranges  0x0000000000001728      0x110 platform/libpicofe/readpng.o
 .debug_ranges  0x0000000000001838       0x88 platform/libpicofe/fonts.o
 .debug_ranges  0x00000000000018c0       0x88 platform/libpicofe/linux/in_evdev.o
 .debug_ranges  0x0000000000001948       0x48 platform/common/mp3.o
 .debug_ranges  0x0000000000001990      0x220 unzip/unzip.o
 .debug_ranges  0x0000000000001bb0      0x188 pico/pico.o
 .debug_ranges  0x0000000000001d38      0x408 pico/cart.o
 .debug_ranges  0x0000000000002140      0x388 pico/memory.o
 .debug_ranges  0x00000000000024c8      0x118 pico/state.o
 .debug_ranges  0x00000000000025e0       0x50 pico/sek.o
 .debug_ranges  0x0000000000002630       0x20 pico/z80if.o
 .debug_ranges  0x0000000000002650      0x200 pico/videoport.o
 .debug_ranges  0x0000000000002850       0x70 pico/draw2.o
 .debug_ranges  0x00000000000028c0      0x2c8 pico/draw.o
 .debug_ranges  0x0000000000002b88       0x60 pico/mode4.o
 .debug_ranges  0x0000000000002be8       0x80 pico/eeprom.o
 .debug_ranges  0x0000000000002c68       0xa0 pico/patch.o
 .debug_ranges  0x0000000000002d08       0x68 pico/debug.o
 .debug_ranges  0x0000000000002d70       0x70 pico/media.o
 .debug_ranges  0x0000000000002de0       0x68 pico/sms.o
 .debug_ranges  0x0000000000002e48      0x298 pico/cd/mcd.o
 .debug_ranges  0x00000000000030e0       0xe8 pico/cd/memory.o
 .debug_ranges  0x00000000000031c8       0x60 pico/cd/cdc.o
 .debug_ranges  0x0000000000003228      0x668 pico/cd/cdd.o
 .debug_ranges  0x0000000000003890       0x88 pico/cd/cd_image.o
 .debug_ranges  0x0000000000003918      0x148 pico/cd/cue.o
 .debug_ranges  0x0000000000003a60       0x40 pico/cd/gfx.o
 .debug_ranges  0x0000000000003aa0       0x18 pico/cd/gfx_dma.o
 .debug_ranges  0x0000000000003ab8      0x280 pico/32x/32x.o
 .debug_ranges  0x0000000000003d38      0x3c0 pico/32x/memory.o
 .debug_ranges  0x00000000000040f8      0x1a0 pico/32x/draw.o
 .debug_ranges  0x0000000000004298       0x90 pico/32x/sh2soc.o
 .debug_ranges  0x0000000000004328      0x138 pico/32x/pwm.o
 .debug_ranges  0x0000000000004460       0x48 pico/pico/xpcm.o
 .debug_ranges  0x00000000000044a8      0x160 pico/carthw/carthw.o
 .debug_ranges  0x0000000000004608      0x990 pico/carthw/svp/ssp16.o
 .debug_ranges  0x0000000000004f98      0xd90 pico/carthw/svp/compiler.o
 .debug_ranges  0x0000000000005d28       0x88 pico/sound/sound.o
 .debug_ranges  0x0000000000005db0       0x78 pico/sound/sn76496.o
 .debug_ranges  0x0000000000005e28      0xbb0 pico/sound/ym2612.o
 .debug_ranges  0x00000000000069d8       0x20 cpu/drc/cmn.o
 .debug_ranges  0x00000000000069f8     0x1b60 cpu/sh2/compiler.o
 .debug_ranges  0x0000000000008558     0x12c0 cpu/sh2/mame/sh2pico.o
 .debug_ranges  0x0000000000009818      0x140 /opt/miyoo/lib/gcc/arm-miyoo-linux-uclibcgnueabi/7.3.0/libgcov.a(_gcov.o)

.debug_macro
 *(.debug_macro)

.debug_addr
 *(.debug_addr)

.gnu.attributes
 *(.gnu.attributes)

.note.gnu.arm.ident
 *(.note.gnu.arm.ident)

/DISCARD/
 *(.note.GNU-stack)
 *(.gnu_debuglink)
 *(.gnu.lto_*)
OUTPUT(PicoDrive elf32-littlearm)
